---
triple:          'arm64-apple-darwin'
binary-path:     '/Users/zoezhang/Documents/Home/C/2024/class/graphs/07_27/2016_Gol_Dec_3.exec'
relocations:
  - { offsetInCU: 0x3F, offset: 0x3F, size: 0x8, addend: 0x0, symName: _N, symObjAddr: 0x8B7F4, symBinAddr: 0x100018020, symSize: 0x0 }
  - { offsetInCU: 0x5B, offset: 0x5B, size: 0x8, addend: 0x0, symName: _L, symObjAddr: 0x8B7F8, symBinAddr: 0x100018024, symSize: 0x0 }
  - { offsetInCU: 0x14E, offset: 0x14E, size: 0x8, addend: 0x0, symName: __ZNSt3__1L19piecewise_constructE, symObjAddr: 0x129F7, symBinAddr: 0x100013657, symSize: 0x0 }
  - { offsetInCU: 0x9981, offset: 0x9981, size: 0x8, addend: 0x0, symName: __ZNSt3__111__introsortINS_17_ClassicAlgPolicyERNS_6__lessIvvEEPNS_4pairIiiEELb0EEEvT1_S8_T0_NS_15iterator_traitsIS8_E15difference_typeEb, symObjAddr: 0x51FC, symBinAddr: 0x100005B58, symSize: 0x434 }
  - { offsetInCU: 0x9AAC, offset: 0x9AAC, size: 0x8, addend: 0x0, symName: __ZNSt3__126__insertion_sort_unguardedB8ue170006INS_17_ClassicAlgPolicyERNS_6__lessIvvEEPNS_4pairIiiEEEEvT1_S8_T0_, symObjAddr: 0x58E8, symBinAddr: 0x100006244, symSize: 0x120 }
  - { offsetInCU: 0x9B9C, offset: 0x9B9C, size: 0x8, addend: 0x0, symName: __ZNSt3__111__sift_downB8ue170006INS_17_ClassicAlgPolicyERNS_6__lessIvvEEPNS_4pairIiiEEEEvT1_OT0_NS_15iterator_traitsIS8_E15difference_typeES8_, symObjAddr: 0x6BEC, symBinAddr: 0x100007548, symSize: 0x20C }
  - { offsetInCU: 0x9C49, offset: 0x9C49, size: 0x8, addend: 0x0, symName: __ZNSt3__117__floyd_sift_downB8ue170006INS_17_ClassicAlgPolicyERNS_6__lessIvvEEPNS_4pairIiiEEEET1_S8_OT0_NS_15iterator_traitsIS8_E15difference_typeE, symObjAddr: 0x6F94, symBinAddr: 0x1000078F0, symSize: 0x100 }
  - { offsetInCU: 0x9CE1, offset: 0x9CE1, size: 0x8, addend: 0x0, symName: __ZNSt3__131__partition_with_equals_on_leftB8ue170006INS_17_ClassicAlgPolicyEPNS_4pairIiiEERNS_6__lessIvvEEEET0_S8_S8_T1_, symObjAddr: 0x5C14, symBinAddr: 0x100006570, symSize: 0x20C }
  - { offsetInCU: 0x9D9C, offset: 0x9D9C, size: 0x8, addend: 0x0, symName: __ZNSt3__118__bitset_partitionB8ue170006INS_17_ClassicAlgPolicyEPNS_4pairIiiEERNS_6__lessIvvEEEENS2_IT0_bEES8_S8_T1_, symObjAddr: 0x5E20, symBinAddr: 0x10000677C, symSize: 0x32C }
  - { offsetInCU: 0x9E97, offset: 0x9E97, size: 0x8, addend: 0x0, symName: __ZNSt3__124__swap_bitmap_pos_withinB8ue170006INS_17_ClassicAlgPolicyEPNS_4pairIiiEEEEvRT0_S6_RyS7_, symObjAddr: 0x76E0, symBinAddr: 0x10000803C, symSize: 0x1E0 }
  - { offsetInCU: 0x9F64, offset: 0x9F64, size: 0x8, addend: 0x0, symName: __ZNSt3__132__partition_with_equals_on_rightB8ue170006INS_17_ClassicAlgPolicyEPNS_4pairIiiEERNS_6__lessIvvEEEENS2_IT0_bEES8_S8_T1_, symObjAddr: 0x614C, symBinAddr: 0x100006AA8, symSize: 0x224 }
  - { offsetInCU: 0xA02E, offset: 0xA02E, size: 0x8, addend: 0x0, symName: __ZNSt3__127__insertion_sort_incompleteB8ue170006INS_17_ClassicAlgPolicyERNS_6__lessIvvEEPNS_4pairIiiEEEEbT1_S8_T0_, symObjAddr: 0x6370, symBinAddr: 0x100006CCC, symSize: 0x304 }
  - { offsetInCU: 0xA3E0, offset: 0xA3E0, size: 0x8, addend: 0x0, symName: '__ZNSt3__111__introsortINS_17_ClassicAlgPolicyERZ4mainE3$_0PNS_4pairIiiEELb0EEEvT1_S7_T0_NS_15iterator_traitsIS7_E15difference_typeEb', symObjAddr: 0x9370, symBinAddr: 0x100009CCC, symSize: 0x4C4 }
  - { offsetInCU: 0xA50B, offset: 0xA50B, size: 0x8, addend: 0x0, symName: '__ZNSt3__126__insertion_sort_unguardedB8ue170006INS_17_ClassicAlgPolicyERZ4mainE3$_0PNS_4pairIiiEEEEvT1_S7_T0_', symObjAddr: 0x9AC0, symBinAddr: 0x10000A41C, symSize: 0x14C }
  - { offsetInCU: 0xA5FB, offset: 0xA5FB, size: 0x8, addend: 0x0, symName: '__ZNSt3__111__sift_downB8ue170006INS_17_ClassicAlgPolicyERZ4mainE3$_0PNS_4pairIiiEEEEvT1_OT0_NS_15iterator_traitsIS7_E15difference_typeES7_', symObjAddr: 0xAE64, symBinAddr: 0x10000B7C0, symSize: 0x260 }
  - { offsetInCU: 0xA6A8, offset: 0xA6A8, size: 0x8, addend: 0x0, symName: '__ZNSt3__117__floyd_sift_downB8ue170006INS_17_ClassicAlgPolicyERZ4mainE3$_0PNS_4pairIiiEEEET1_S7_OT0_NS_15iterator_traitsIS7_E15difference_typeE', symObjAddr: 0xB260, symBinAddr: 0x10000BBBC, symSize: 0x114 }
  - { offsetInCU: 0xA740, offset: 0xA740, size: 0x8, addend: 0x0, symName: '__ZNSt3__131__partition_with_equals_on_leftB8ue170006INS_17_ClassicAlgPolicyEPNS_4pairIiiEERZ4mainE3$_0EET0_S7_S7_T1_', symObjAddr: 0x9E5C, symBinAddr: 0x10000A7B8, symSize: 0x280 }
  - { offsetInCU: 0xA7FB, offset: 0xA7FB, size: 0x8, addend: 0x0, symName: '__ZNSt3__118__bitset_partitionB8ue170006INS_17_ClassicAlgPolicyEPNS_4pairIiiEERZ4mainE3$_0EENS2_IT0_bEES7_S7_T1_', symObjAddr: 0xA0DC, symBinAddr: 0x10000AA38, symSize: 0x378 }
  - { offsetInCU: 0xA8F6, offset: 0xA8F6, size: 0x8, addend: 0x0, symName: '__ZNSt3__132__partition_with_equals_on_rightB8ue170006INS_17_ClassicAlgPolicyEPNS_4pairIiiEERZ4mainE3$_0EENS2_IT0_bEES7_S7_T1_', symObjAddr: 0xA454, symBinAddr: 0x10000ADB0, symSize: 0x288 }
  - { offsetInCU: 0xA9C0, offset: 0xA9C0, size: 0x8, addend: 0x0, symName: '__ZNSt3__127__insertion_sort_incompleteB8ue170006INS_17_ClassicAlgPolicyERZ4mainE3$_0PNS_4pairIiiEEEEbT1_S7_T0_', symObjAddr: 0xA6DC, symBinAddr: 0x10000B038, symSize: 0x348 }
  - { offsetInCU: 0xF69B, offset: 0xF69B, size: 0x8, addend: 0x0, symName: __ZNSt3__19make_pairB8ue170006IRiS1_EENS_4pairINS_18__unwrap_ref_decayIT_E4typeENS3_IT0_E4typeEEEOS4_OS7_, symObjAddr: 0xCBC, symBinAddr: 0x100001618, symSize: 0x34 }
  - { offsetInCU: 0xF6EA, offset: 0xF6EA, size: 0x8, addend: 0x0, symName: __ZNSt3__14sortB8ue170006INS_11__wrap_iterIPNS_4pairIiiEEEEEEvT_S6_, symObjAddr: 0xD70, symBinAddr: 0x1000016CC, symSize: 0x3C }
  - { offsetInCU: 0xF72C, offset: 0xF72C, size: 0x8, addend: 0x0, symName: __ZNSt3__1eqB8ue170006ERKNS_14__map_iteratorINS_15__tree_iteratorINS_12__value_typeIiiEEPNS_11__tree_nodeIS3_PvEElEEEESB_, symObjAddr: 0xE0C, symBinAddr: 0x100001768, symSize: 0x30 }
  - { offsetInCU: 0xF769, offset: 0xF769, size: 0x8, addend: 0x0, symName: '__ZNSt3__14sortB8ue170006INS_11__wrap_iterIPNS_4pairIiiEEEEZ4mainE3$_0EEvT_S7_T0_', symObjAddr: 0xF34, symBinAddr: 0x100001890, symSize: 0x40 }
  - { offsetInCU: 0xF9CE, offset: 0xF9CE, size: 0x8, addend: 0x0, symName: __ZNSt3__13getB8ue170006ILm0EJiiiEEERNS_13tuple_elementIXT_ENS_5tupleIJDpT0_EEEE4typeERS5_, symObjAddr: 0x11C0, symBinAddr: 0x100001B1C, symSize: 0x24 }
  - { offsetInCU: 0xFA1B, offset: 0xFA1B, size: 0x8, addend: 0x0, symName: __ZNSt3__13getB8ue170006ILm1EJiiiEEERNS_13tuple_elementIXT_ENS_5tupleIJDpT0_EEEE4typeERS5_, symObjAddr: 0x1208, symBinAddr: 0x100001B64, symSize: 0x28 }
  - { offsetInCU: 0xFA68, offset: 0xFA68, size: 0x8, addend: 0x0, symName: __ZNSt3__13getB8ue170006ILm2EJiiiEEERNS_13tuple_elementIXT_ENS_5tupleIJDpT0_EEEE4typeERS5_, symObjAddr: 0x1230, symBinAddr: 0x100001B8C, symSize: 0x28 }
  - { offsetInCU: 0xFAB5, offset: 0xFAB5, size: 0x8, addend: 0x0, symName: __ZNSt3__13minB8ue170006IiEERKT_S3_S3_, symObjAddr: 0x127C, symBinAddr: 0x100001BD8, symSize: 0x2C }
  - { offsetInCU: 0x10733, offset: 0x10733, size: 0x8, addend: 0x0, symName: __ZNSt3__14endlB8ue170006IcNS_11char_traitsIcEEEERNS_13basic_ostreamIT_T0_EES7_, symObjAddr: 0x1318, symBinAddr: 0x100001C74, symSize: 0x58 }
  - { offsetInCU: 0x107AC, offset: 0x107AC, size: 0x8, addend: 0x0, symName: __ZNSt3__13minB8ue170006IiNS_6__lessIvvEEEERKT_S5_S5_T0_, symObjAddr: 0x161C, symBinAddr: 0x100001F78, symSize: 0x54 }
  - { offsetInCU: 0x108AD, offset: 0x108AD, size: 0x8, addend: 0x0, symName: __ZNSt3__1neB8ue170006ERKNS_16__deque_iteratorINS_5tupleIJiiiEEEPS2_RS2_PS3_lLl341EEES8_, symObjAddr: 0x1D64, symBinAddr: 0x1000026C0, symSize: 0x34 }
  - { offsetInCU: 0x108EA, offset: 0x108EA, size: 0x8, addend: 0x0, symName: __ZNSt3__1eqB8ue170006ERKNS_16__deque_iteratorINS_5tupleIJiiiEEEPS2_RS2_PS3_lLl341EEES8_, symObjAddr: 0x20C4, symBinAddr: 0x100002A20, symSize: 0x30 }
  - { offsetInCU: 0x10927, offset: 0x10927, size: 0x8, addend: 0x0, symName: __ZNSt3__112__to_addressB8ue170006INS_5tupleIJiiiEEEEEPT_S4_, symObjAddr: 0x276C, symBinAddr: 0x1000030C8, symSize: 0x14 }
  - { offsetInCU: 0x1095C, offset: 0x1095C, size: 0x8, addend: 0x0, symName: __ZNSt3__119__libcpp_deallocateB8ue170006EPvmm, symObjAddr: 0x28DC, symBinAddr: 0x100003238, symSize: 0x30 }
  - { offsetInCU: 0x109A4, offset: 0x109A4, size: 0x8, addend: 0x0, symName: __ZNSt3__127__do_deallocate_handle_sizeB8ue170006IJEEEvPvmDpT_, symObjAddr: 0x290C, symBinAddr: 0x100003268, symSize: 0x28 }
  - { offsetInCU: 0x109E2, offset: 0x109E2, size: 0x8, addend: 0x0, symName: __ZNSt3__124__libcpp_operator_deleteB8ue170006IJPvEEEvDpT_, symObjAddr: 0x2934, symBinAddr: 0x100003290, symSize: 0x24 }
  - { offsetInCU: 0x10A17, offset: 0x10A17, size: 0x8, addend: 0x0, symName: __ZNSt3__112__to_addressB8ue170006IPNS_5tupleIJiiiEEEEEPT_S5_, symObjAddr: 0x2BB8, symBinAddr: 0x100003514, symSize: 0x14 }
  - { offsetInCU: 0x10A4C, offset: 0x10A4C, size: 0x8, addend: 0x0, symName: __ZNSt3__112__to_addressB8ue170006INS_4pairIiiEEEEPT_S4_, symObjAddr: 0x3164, symBinAddr: 0x100003AC0, symSize: 0x14 }
  - { offsetInCU: 0x10A81, offset: 0x10A81, size: 0x8, addend: 0x0, symName: __ZNSt3__13maxB8ue170006ImEERKT_S3_S3_, symObjAddr: 0x3874, symBinAddr: 0x1000041D0, symSize: 0x2C }
  - { offsetInCU: 0x10AC4, offset: 0x10AC4, size: 0x8, addend: 0x0, symName: __ZNSt3__13minB8ue170006ImEERKT_S3_S3_, symObjAddr: 0x38A0, symBinAddr: 0x1000041FC, symSize: 0x2C }
  - { offsetInCU: 0x10D08, offset: 0x10D08, size: 0x8, addend: 0x0, symName: __ZNSt3__13minB8ue170006ImNS_6__lessIvvEEEERKT_S5_S5_T0_, symObjAddr: 0x392C, symBinAddr: 0x100004288, symSize: 0x54 }
  - { offsetInCU: 0x10D62, offset: 0x10D62, size: 0x8, addend: 0x0, symName: __ZNSt3__120__throw_length_errorB8ue170006EPKc, symObjAddr: 0x3A08, symBinAddr: 0x100004364, symSize: 0x64 }
  - { offsetInCU: 0x10D8C, offset: 0x10D8C, size: 0x8, addend: 0x0, symName: __ZNSt3__13maxB8ue170006ImNS_6__lessIvvEEEERKT_S5_S5_T0_, symObjAddr: 0x3AEC, symBinAddr: 0x100004448, symSize: 0x54 }
  - { offsetInCU: 0x10DE6, offset: 0x10DE6, size: 0x8, addend: 0x0, symName: __ZNSt3__119__allocate_at_leastB8ue170006INS_9allocatorINS_4pairIiiEEEEEENS_19__allocation_resultINS_16allocator_traitsIT_E7pointerEEERS7_m, symObjAddr: 0x3C50, symBinAddr: 0x1000045AC, symSize: 0x40 }
  - { offsetInCU: 0x10E29, offset: 0x10E29, size: 0x8, addend: 0x0, symName: __ZNSt3__117__libcpp_allocateB8ue170006Emm, symObjAddr: 0x3DD4, symBinAddr: 0x100004730, symSize: 0x28 }
  - { offsetInCU: 0x10E66, offset: 0x10E66, size: 0x8, addend: 0x0, symName: __ZNSt3__121__libcpp_operator_newB8ue170006IJmEEEPvDpT_, symObjAddr: 0x3DFC, symBinAddr: 0x100004758, symSize: 0x24 }
  - { offsetInCU: 0x10E9F, offset: 0x10E9F, size: 0x8, addend: 0x0, symName: __ZNSt3__142__uninitialized_allocator_move_if_noexceptB8ue170006INS_9allocatorINS_4pairIiiEEEENS_16reverse_iteratorIPS3_EES7_S7_EET2_RT_T0_T1_S8_, symObjAddr: 0x3E84, symBinAddr: 0x1000047E0, symSize: 0x12C }
  - { offsetInCU: 0x10F3F, offset: 0x10F3F, size: 0x8, addend: 0x0, symName: __ZNSt3__14swapB8ue170006IPNS_4pairIiiEEEENS_9enable_ifIXaasr21is_move_constructibleIT_EE5valuesr18is_move_assignableIS5_EE5valueEvE4typeERS5_S8_, symObjAddr: 0x3FFC, symBinAddr: 0x100004958, symSize: 0x3C }
  - { offsetInCU: 0x10F90, offset: 0x10F90, size: 0x8, addend: 0x0, symName: __ZNSt3__122__make_exception_guardB8ue170006INS_29_AllocatorDestroyRangeReverseINS_9allocatorINS_4pairIiiEEEENS_16reverse_iteratorIPS4_EEEEEENS_28__exception_guard_exceptionsIT_EESB_, symObjAddr: 0x40E4, symBinAddr: 0x100004A40, symSize: 0x4C }
  - { offsetInCU: 0x10FC6, offset: 0x10FC6, size: 0x8, addend: 0x0, symName: __ZNSt3__1neB8ue170006IPNS_4pairIiiEES3_EEbRKNS_16reverse_iteratorIT_EERKNS4_IT0_EE, symObjAddr: 0x4174, symBinAddr: 0x100004AD0, symSize: 0x48 }
  - { offsetInCU: 0x11012, offset: 0x11012, size: 0x8, addend: 0x0, symName: __ZNSt3__112__to_addressB8ue170006INS_16reverse_iteratorIPNS_4pairIiiEEEEvEEu7__decayIDTclsr19__to_address_helperIT_EE6__callclsr3stdE7declvalIRKS6_EEEEES8_, symObjAddr: 0x41BC, symBinAddr: 0x100004B18, symSize: 0x24 }
  - { offsetInCU: 0x11071, offset: 0x11071, size: 0x8, addend: 0x0, symName: __ZNSt3__119__allocator_destroyB8ue170006INS_9allocatorINS_4pairIiiEEEENS_16reverse_iteratorINS5_IPS3_EEEES8_EEvRT_T0_T1_, symObjAddr: 0x446C, symBinAddr: 0x100004DC8, symSize: 0x70 }
  - { offsetInCU: 0x110D6, offset: 0x110D6, size: 0x8, addend: 0x0, symName: __ZNSt3__1neB8ue170006INS_16reverse_iteratorIPNS_4pairIiiEEEES5_EEbRKNS1_IT_EERKNS1_IT0_EE, symObjAddr: 0x4518, symBinAddr: 0x100004E74, symSize: 0x60 }
  - { offsetInCU: 0x11122, offset: 0x11122, size: 0x8, addend: 0x0, symName: __ZNSt3__112__to_addressB8ue170006INS_16reverse_iteratorINS1_IPNS_4pairIiiEEEEEEvEEu7__decayIDTclsr19__to_address_helperIT_EE6__callclsr3stdE7declvalIRKS7_EEEEES9_, symObjAddr: 0x4578, symBinAddr: 0x100004ED4, symSize: 0x24 }
  - { offsetInCU: 0x111B4, offset: 0x111B4, size: 0x8, addend: 0x0, symName: __ZNSt3__14sortB8ue170006INS_11__wrap_iterIPNS_4pairIiiEEEENS_6__lessIvvEEEEvT_S8_T0_, symObjAddr: 0x5004, symBinAddr: 0x100005960, symSize: 0x40 }
  - { offsetInCU: 0x1120E, offset: 0x1120E, size: 0x8, addend: 0x0, symName: __ZNSt3__111__sort_implB8ue170006INS_17_ClassicAlgPolicyENS_11__wrap_iterIPNS_4pairIiiEEEENS_6__lessIvvEEEEvT0_S9_RT1_, symObjAddr: 0x5044, symBinAddr: 0x1000059A0, symSize: 0xA8 }
  - { offsetInCU: 0x11271, offset: 0x11271, size: 0x8, addend: 0x0, symName: __ZNSt3__123__debug_randomize_rangeB8ue170006INS_17_ClassicAlgPolicyENS_11__wrap_iterIPNS_4pairIiiEEEES6_EEvT0_T1_, symObjAddr: 0x50EC, symBinAddr: 0x100005A48, symSize: 0x14 }
  - { offsetInCU: 0x112C2, offset: 0x112C2, size: 0x8, addend: 0x0, symName: __ZNSt3__115__sort_dispatchB8ue170006INS_17_ClassicAlgPolicyEPNS_4pairIiiEENS_6__lessIvvEEEEvT0_S7_RT1_, symObjAddr: 0x5100, symBinAddr: 0x100005A5C, symSize: 0x64 }
  - { offsetInCU: 0x11340, offset: 0x11340, size: 0x8, addend: 0x0, symName: __ZNSt3__113__unwrap_iterB8ue170006INS_11__wrap_iterIPNS_4pairIiiEEEENS_18__unwrap_iter_implIS5_Lb1EEELi0EEEDTclsrT0_8__unwrapclsr3stdE7declvalIT_EEEES9_, symObjAddr: 0x5164, symBinAddr: 0x100005AC0, symSize: 0x2C }
  - { offsetInCU: 0x11384, offset: 0x11384, size: 0x8, addend: 0x0, symName: __ZNSt3__135__check_strict_weak_ordering_sortedB8ue170006IPNS_4pairIiiEENS_6__lessIvvEEEEvT_S6_RT0_, symObjAddr: 0x5190, symBinAddr: 0x100005AEC, symSize: 0x18 }
  - { offsetInCU: 0x113DA, offset: 0x113DA, size: 0x8, addend: 0x0, symName: __ZNSt3__17__log2iB8ue170006IlEET_S1_, symObjAddr: 0x51A8, symBinAddr: 0x100005B04, symSize: 0x54 }
  - { offsetInCU: 0x11411, offset: 0x11411, size: 0x8, addend: 0x0, symName: __ZNSt3__112__libcpp_clzB8ue170006Em, symObjAddr: 0x5648, symBinAddr: 0x100005FA4, symSize: 0x1C }
  - { offsetInCU: 0x11527, offset: 0x11527, size: 0x8, addend: 0x0, symName: __ZNSt3__124__sort3_maybe_branchlessB8ue170006INS_17_ClassicAlgPolicyERNS_6__lessIvvEEPNS_4pairIiiEEEENS_9enable_ifIXntsr21__use_branchless_sortIT0_T1_EE5valueEvE4typeESA_SA_SA_S9_, symObjAddr: 0x56CC, symBinAddr: 0x100006028, symSize: 0x3C }
  - { offsetInCU: 0x11598, offset: 0x11598, size: 0x8, addend: 0x0, symName: __ZNSt3__124__sort4_maybe_branchlessB8ue170006INS_17_ClassicAlgPolicyERNS_6__lessIvvEEPNS_4pairIiiEEEENS_9enable_ifIXntsr21__use_branchless_sortIT0_T1_EE5valueEvE4typeESA_SA_SA_SA_S9_, symObjAddr: 0x5708, symBinAddr: 0x100006064, symSize: 0x44 }
  - { offsetInCU: 0x11617, offset: 0x11617, size: 0x8, addend: 0x0, symName: __ZNSt3__124__sort5_maybe_branchlessB8ue170006INS_17_ClassicAlgPolicyERNS_6__lessIvvEEPNS_4pairIiiEEEENS_9enable_ifIXntsr21__use_branchless_sortIT0_T1_EE5valueEvE4typeESA_SA_SA_SA_SA_S9_, symObjAddr: 0x574C, symBinAddr: 0x1000060A8, symSize: 0x4C }
  - { offsetInCU: 0x116A4, offset: 0x116A4, size: 0x8, addend: 0x0, symName: __ZNSt3__116__insertion_sortB8ue170006INS_17_ClassicAlgPolicyERNS_6__lessIvvEEPNS_4pairIiiEEEEvT1_S8_T0_, symObjAddr: 0x5798, symBinAddr: 0x1000060F4, symSize: 0x150 }
  - { offsetInCU: 0x11767, offset: 0x11767, size: 0x8, addend: 0x0, symName: __ZNSt3__114__partial_sortB8ue170006INS_17_ClassicAlgPolicyERNS_6__lessIvvEEPNS_4pairIiiEES7_EET1_S8_S8_T2_RT0_, symObjAddr: 0x5A08, symBinAddr: 0x100006364, symSize: 0x94 }
  - { offsetInCU: 0x117EF, offset: 0x117EF, size: 0x8, addend: 0x0, symName: __ZNSt3__17__sort3B8ue170006INS_17_ClassicAlgPolicyERNS_6__lessIvvEEPNS_4pairIiiEEEEjT1_S8_S8_T0_, symObjAddr: 0x5A9C, symBinAddr: 0x1000063F8, symSize: 0x144 }
  - { offsetInCU: 0x1186E, offset: 0x1186E, size: 0x8, addend: 0x0, symName: __ZNSt3__1ltB8ue170006IiiiiEEbRKNS_4pairIT_T0_EERKNS1_IT1_T2_EE, symObjAddr: 0x668C, symBinAddr: 0x100006FE8, symSize: 0x98 }
  - { offsetInCU: 0x118CF, offset: 0x118CF, size: 0x8, addend: 0x0, symName: __ZNSt3__19iter_swapB8ue170006IPNS_4pairIiiEES3_EEvT_T0_, symObjAddr: 0x6724, symBinAddr: 0x100007080, symSize: 0x2C }
  - { offsetInCU: 0x11917, offset: 0x11917, size: 0x8, addend: 0x0, symName: __ZNSt3__14swapB8ue170006IiiEENS_9enable_ifIXaasr14__is_swappableIT_EE5valuesr14__is_swappableIT0_EE5valueEvE4typeERNS_4pairIS2_S3_EES8_, symObjAddr: 0x6750, symBinAddr: 0x1000070AC, symSize: 0x2C }
  - { offsetInCU: 0x11966, offset: 0x11966, size: 0x8, addend: 0x0, symName: __ZNSt3__14swapB8ue170006IiEENS_9enable_ifIXaasr21is_move_constructibleIT_EE5valuesr18is_move_assignableIS2_EE5valueEvE4typeERS2_S5_, symObjAddr: 0x67C0, symBinAddr: 0x10000711C, symSize: 0x3C }
  - { offsetInCU: 0x119B7, offset: 0x119B7, size: 0x8, addend: 0x0, symName: __ZNSt3__17__sort4B8ue170006INS_17_ClassicAlgPolicyERNS_6__lessIvvEEPNS_4pairIiiEEEEvT1_S8_S8_S8_T0_, symObjAddr: 0x67FC, symBinAddr: 0x100007158, symSize: 0xB8 }
  - { offsetInCU: 0x11A32, offset: 0x11A32, size: 0x8, addend: 0x0, symName: __ZNSt3__17__sort5B8ue170006INS_17_ClassicAlgPolicyERNS_6__lessIvvEEPNS_4pairIiiEEEEvT1_S8_S8_S8_S8_T0_, symObjAddr: 0x68B4, symBinAddr: 0x100007210, symSize: 0xE8 }
  - { offsetInCU: 0x11ADF, offset: 0x11ADF, size: 0x8, addend: 0x0, symName: __ZNSt3__123__debug_randomize_rangeB8ue170006INS_17_ClassicAlgPolicyEPNS_4pairIiiEES4_EEvT0_T1_, symObjAddr: 0x6A10, symBinAddr: 0x10000736C, symSize: 0x14 }
  - { offsetInCU: 0x11B30, offset: 0x11B30, size: 0x8, addend: 0x0, symName: __ZNSt3__119__partial_sort_implB8ue170006INS_17_ClassicAlgPolicyERNS_6__lessIvvEEPNS_4pairIiiEES7_EET1_S8_S8_T2_OT0_, symObjAddr: 0x6A24, symBinAddr: 0x100007380, symSize: 0x110 }
  - { offsetInCU: 0x11BC6, offset: 0x11BC6, size: 0x8, addend: 0x0, symName: __ZNSt3__111__make_heapB8ue170006INS_17_ClassicAlgPolicyERNS_6__lessIvvEEPNS_4pairIiiEEEEvT1_S8_OT0_, symObjAddr: 0x6B34, symBinAddr: 0x100007490, symSize: 0xB8 }
  - { offsetInCU: 0x11C68, offset: 0x11C68, size: 0x8, addend: 0x0, symName: __ZNSt3__111__sort_heapB8ue170006INS_17_ClassicAlgPolicyERNS_6__lessIvvEEPNS_4pairIiiEEEEvT1_S8_OT0_, symObjAddr: 0x6DF8, symBinAddr: 0x100007754, symSize: 0xA8 }
  - { offsetInCU: 0x11D0A, offset: 0x11D0A, size: 0x8, addend: 0x0, symName: __ZNSt3__110__pop_heapB8ue170006INS_17_ClassicAlgPolicyENS_6__lessIvvEEPNS_4pairIiiEEEEvT1_S7_RT0_NS_15iterator_traitsIS7_E15difference_typeE, symObjAddr: 0x6EA0, symBinAddr: 0x1000077FC, symSize: 0xF4 }
  - { offsetInCU: 0x11DBA, offset: 0x11DBA, size: 0x8, addend: 0x0, symName: __ZNSt3__19__sift_upB8ue170006INS_17_ClassicAlgPolicyERNS_6__lessIvvEEPNS_4pairIiiEEEEvT1_S8_OT0_NS_15iterator_traitsIS8_E15difference_typeE, symObjAddr: 0x7094, symBinAddr: 0x1000079F0, symSize: 0x11C }
  - { offsetInCU: 0x11E6A, offset: 0x11E6A, size: 0x8, addend: 0x0, symName: __ZNSt3__122__populate_left_bitsetB8ue170006IRNS_6__lessIvvEEPNS_4pairIiiEES5_EEvT0_T_RT1_Ry, symObjAddr: 0x71B0, symBinAddr: 0x100007B0C, symSize: 0xA8 }
  - { offsetInCU: 0x11F25, offset: 0x11F25, size: 0x8, addend: 0x0, symName: __ZNSt3__123__populate_right_bitsetB8ue170006IRNS_6__lessIvvEEPNS_4pairIiiEES5_EEvT0_T_RT1_Ry, symObjAddr: 0x7258, symBinAddr: 0x100007BB4, symSize: 0xA0 }
  - { offsetInCU: 0x11FE0, offset: 0x11FE0, size: 0x8, addend: 0x0, symName: __ZNSt3__117__swap_bitmap_posB8ue170006INS_17_ClassicAlgPolicyEPNS_4pairIiiEEEEvT0_S5_RyS6_, symObjAddr: 0x72F8, symBinAddr: 0x100007C54, symSize: 0x100 }
  - { offsetInCU: 0x12081, offset: 0x12081, size: 0x8, addend: 0x0, symName: __ZNSt3__133__bitset_partition_partial_blocksB8ue170006INS_17_ClassicAlgPolicyERNS_6__lessIvvEEPNS_4pairIiiEES6_EEvRT1_S9_T0_RT2_RySD_, symObjAddr: 0x73F8, symBinAddr: 0x100007D54, symSize: 0x2E8 }
  - { offsetInCU: 0x12202, offset: 0x12202, size: 0x8, addend: 0x0, symName: __ZNSt3__19make_pairB8ue170006IRPNS_4pairIiiEERbEENS1_INS_18__unwrap_ref_decayIT_E4typeENS6_IT0_E4typeEEEOS7_OSA_, symObjAddr: 0x78C0, symBinAddr: 0x10000821C, symSize: 0x38 }
  - { offsetInCU: 0x12251, offset: 0x12251, size: 0x8, addend: 0x0, symName: __ZNSt3__112__libcpp_ctzB8ue170006Ey, symObjAddr: 0x78F8, symBinAddr: 0x100008254, symSize: 0x20 }
  - { offsetInCU: 0x1227D, offset: 0x1227D, size: 0x8, addend: 0x0, symName: __ZNSt3__113__libcpp_blsrB8ue170006Ey, symObjAddr: 0x7918, symBinAddr: 0x100008274, symSize: 0x2C }
  - { offsetInCU: 0x122A9, offset: 0x122A9, size: 0x8, addend: 0x0, symName: __ZNSt3__112__libcpp_clzB8ue170006Ey, symObjAddr: 0x7978, symBinAddr: 0x1000082D4, symSize: 0x1C }
  - { offsetInCU: 0x123FC, offset: 0x123FC, size: 0x8, addend: 0x0, symName: __ZNSt3__112__to_addressB8ue170006INS_11__wrap_iterIPNS_4pairIiiEEEEvEEu7__decayIDTclsr19__to_address_helperIT_EE6__callclsr3stdE7declvalIRKS6_EEEEES8_, symObjAddr: 0x7A30, symBinAddr: 0x10000838C, symSize: 0x24 }
  - { offsetInCU: 0x124D7, offset: 0x124D7, size: 0x8, addend: 0x0, symName: __ZNSt3__1neB8ue170006ERKNS_15__tree_iteratorINS_12__value_typeIiiEEPNS_11__tree_nodeIS2_PvEElEES9_, symObjAddr: 0x7C98, symBinAddr: 0x1000085F4, symSize: 0x34 }
  - { offsetInCU: 0x12514, offset: 0x12514, size: 0x8, addend: 0x0, symName: __ZNSt3__1eqB8ue170006ERKNS_15__tree_iteratorINS_12__value_typeIiiEEPNS_11__tree_nodeIS2_PvEElEES9_, symObjAddr: 0x7E84, symBinAddr: 0x1000087E0, symSize: 0x30 }
  - { offsetInCU: 0x12588, offset: 0x12588, size: 0x8, addend: 0x0, symName: __ZNSt3__116forward_as_tupleB8ue170006IJRKiEEENS_5tupleIJDpOT_EEES6_, symObjAddr: 0x8024, symBinAddr: 0x100008980, symSize: 0x2C }
  - { offsetInCU: 0x125C1, offset: 0x125C1, size: 0x8, addend: 0x0, symName: __ZNSt3__116forward_as_tupleB8ue170006IJEEENS_5tupleIJDpOT_EEES4_, symObjAddr: 0x8050, symBinAddr: 0x1000089AC, symSize: 0x4 }
  - { offsetInCU: 0x12603, offset: 0x12603, size: 0x8, addend: 0x0, symName: __ZNSt3__13getB8ue170006ILm0EJRKiEEERNS_13tuple_elementIXT_ENS_5tupleIJDpT0_EEEE4typeERS7_, symObjAddr: 0x894C, symBinAddr: 0x1000092A8, symSize: 0x24 }
  - { offsetInCU: 0x12646, offset: 0x12646, size: 0x8, addend: 0x0, symName: __ZNSt3__127__tree_balance_after_insertB8ue170006IPNS_16__tree_node_baseIPvEEEEvT_S5_, symObjAddr: 0x89FC, symBinAddr: 0x100009358, symSize: 0x32C }
  - { offsetInCU: 0x126C2, offset: 0x126C2, size: 0x8, addend: 0x0, symName: __ZNSt3__120__tree_is_left_childB8ue170006IPNS_16__tree_node_baseIPvEEEEbT_, symObjAddr: 0x8D68, symBinAddr: 0x1000096C4, symSize: 0x2C }
  - { offsetInCU: 0x126F7, offset: 0x126F7, size: 0x8, addend: 0x0, symName: __ZNSt3__118__tree_left_rotateB8ue170006IPNS_16__tree_node_baseIPvEEEEvT_, symObjAddr: 0x8D94, symBinAddr: 0x1000096F0, symSize: 0xD8 }
  - { offsetInCU: 0x12739, offset: 0x12739, size: 0x8, addend: 0x0, symName: __ZNSt3__119__tree_right_rotateB8ue170006IPNS_16__tree_node_baseIPvEEEEvT_, symObjAddr: 0x8E6C, symBinAddr: 0x1000097C8, symSize: 0xCC }
  - { offsetInCU: 0x127C3, offset: 0x127C3, size: 0x8, addend: 0x0, symName: '__ZNSt3__111__sort_implB8ue170006INS_17_ClassicAlgPolicyENS_11__wrap_iterIPNS_4pairIiiEEEEZ4mainE3$_0EEvT0_S8_RT1_', symObjAddr: 0x924C, symBinAddr: 0x100009BA8, symSize: 0xA8 }
  - { offsetInCU: 0x12826, offset: 0x12826, size: 0x8, addend: 0x0, symName: '__ZNSt3__115__sort_dispatchB8ue170006INS_17_ClassicAlgPolicyEPNS_4pairIiiEEZ4mainE3$_0EEvT0_S6_RT1_', symObjAddr: 0x92F4, symBinAddr: 0x100009C50, symSize: 0x64 }
  - { offsetInCU: 0x128A4, offset: 0x128A4, size: 0x8, addend: 0x0, symName: '__ZNSt3__135__check_strict_weak_ordering_sortedB8ue170006IPNS_4pairIiiEEZ4mainE3$_0EEvT_S5_RT0_', symObjAddr: 0x9358, symBinAddr: 0x100009CB4, symSize: 0x18 }
  - { offsetInCU: 0x128FA, offset: 0x128FA, size: 0x8, addend: 0x0, symName: '__ZNSt3__124__sort3_maybe_branchlessB8ue170006INS_17_ClassicAlgPolicyERZ4mainE3$_0PNS_4pairIiiEEEENS_9enable_ifIXntsr21__use_branchless_sortIT0_T1_EE5valueEvE4typeES9_S9_S9_S8_', symObjAddr: 0x9878, symBinAddr: 0x10000A1D4, symSize: 0x3C }
  - { offsetInCU: 0x1296B, offset: 0x1296B, size: 0x8, addend: 0x0, symName: '__ZNSt3__124__sort4_maybe_branchlessB8ue170006INS_17_ClassicAlgPolicyERZ4mainE3$_0PNS_4pairIiiEEEENS_9enable_ifIXntsr21__use_branchless_sortIT0_T1_EE5valueEvE4typeES9_S9_S9_S9_S8_', symObjAddr: 0x98B4, symBinAddr: 0x10000A210, symSize: 0x44 }
  - { offsetInCU: 0x129EA, offset: 0x129EA, size: 0x8, addend: 0x0, symName: '__ZNSt3__124__sort5_maybe_branchlessB8ue170006INS_17_ClassicAlgPolicyERZ4mainE3$_0PNS_4pairIiiEEEENS_9enable_ifIXntsr21__use_branchless_sortIT0_T1_EE5valueEvE4typeES9_S9_S9_S9_S9_S8_', symObjAddr: 0x98F8, symBinAddr: 0x10000A254, symSize: 0x4C }
  - { offsetInCU: 0x12A77, offset: 0x12A77, size: 0x8, addend: 0x0, symName: '__ZNSt3__116__insertion_sortB8ue170006INS_17_ClassicAlgPolicyERZ4mainE3$_0PNS_4pairIiiEEEEvT1_S7_T0_', symObjAddr: 0x9944, symBinAddr: 0x10000A2A0, symSize: 0x17C }
  - { offsetInCU: 0x12B3A, offset: 0x12B3A, size: 0x8, addend: 0x0, symName: '__ZNSt3__114__partial_sortB8ue170006INS_17_ClassicAlgPolicyERZ4mainE3$_0PNS_4pairIiiEES6_EET1_S7_S7_T2_RT0_', symObjAddr: 0x9C0C, symBinAddr: 0x10000A568, symSize: 0x94 }
  - { offsetInCU: 0x12BC2, offset: 0x12BC2, size: 0x8, addend: 0x0, symName: '__ZNSt3__17__sort3B8ue170006INS_17_ClassicAlgPolicyERZ4mainE3$_0PNS_4pairIiiEEEEjT1_S7_S7_T0_', symObjAddr: 0x9CA0, symBinAddr: 0x10000A5FC, symSize: 0x1BC }
  - { offsetInCU: 0x12C41, offset: 0x12C41, size: 0x8, addend: 0x0, symName: '__ZNSt3__17__sort4B8ue170006INS_17_ClassicAlgPolicyERZ4mainE3$_0PNS_4pairIiiEEEEvT1_S7_S7_S7_T0_', symObjAddr: 0xAA3C, symBinAddr: 0x10000B398, symSize: 0x100 }
  - { offsetInCU: 0x12CBC, offset: 0x12CBC, size: 0x8, addend: 0x0, symName: '__ZNSt3__17__sort5B8ue170006INS_17_ClassicAlgPolicyERZ4mainE3$_0PNS_4pairIiiEEEEvT1_S7_S7_S7_S7_T0_', symObjAddr: 0xAB3C, symBinAddr: 0x10000B498, symSize: 0x148 }
  - { offsetInCU: 0x12D45, offset: 0x12D45, size: 0x8, addend: 0x0, symName: '__ZNSt3__119__partial_sort_implB8ue170006INS_17_ClassicAlgPolicyERZ4mainE3$_0PNS_4pairIiiEES6_EET1_S7_S7_T2_OT0_', symObjAddr: 0xAC84, symBinAddr: 0x10000B5E0, symSize: 0x128 }
  - { offsetInCU: 0x12DDB, offset: 0x12DDB, size: 0x8, addend: 0x0, symName: '__ZNSt3__111__make_heapB8ue170006INS_17_ClassicAlgPolicyERZ4mainE3$_0PNS_4pairIiiEEEEvT1_S7_OT0_', symObjAddr: 0xADAC, symBinAddr: 0x10000B708, symSize: 0xB8 }
  - { offsetInCU: 0x12E7D, offset: 0x12E7D, size: 0x8, addend: 0x0, symName: '__ZNSt3__111__sort_heapB8ue170006INS_17_ClassicAlgPolicyERZ4mainE3$_0PNS_4pairIiiEEEEvT1_S7_OT0_', symObjAddr: 0xB0C4, symBinAddr: 0x10000BA20, symSize: 0xA8 }
  - { offsetInCU: 0x12F1F, offset: 0x12F1F, size: 0x8, addend: 0x0, symName: '__ZNSt3__110__pop_heapB8ue170006INS_17_ClassicAlgPolicyEZ4mainE3$_0PNS_4pairIiiEEEEvT1_S6_RT0_NS_15iterator_traitsIS6_E15difference_typeE', symObjAddr: 0xB16C, symBinAddr: 0x10000BAC8, symSize: 0xF4 }
  - { offsetInCU: 0x12FCF, offset: 0x12FCF, size: 0x8, addend: 0x0, symName: '__ZNSt3__19__sift_upB8ue170006INS_17_ClassicAlgPolicyERZ4mainE3$_0PNS_4pairIiiEEEEvT1_S7_OT0_NS_15iterator_traitsIS7_E15difference_typeE', symObjAddr: 0xB374, symBinAddr: 0x10000BCD0, symSize: 0x148 }
  - { offsetInCU: 0x1307F, offset: 0x1307F, size: 0x8, addend: 0x0, symName: '__ZNSt3__122__populate_left_bitsetB8ue170006IRZ4mainE3$_0PNS_4pairIiiEES4_EEvT0_T_RT1_Ry', symObjAddr: 0xB4BC, symBinAddr: 0x10000BE18, symSize: 0xC0 }
  - { offsetInCU: 0x1313A, offset: 0x1313A, size: 0x8, addend: 0x0, symName: '__ZNSt3__123__populate_right_bitsetB8ue170006IRZ4mainE3$_0PNS_4pairIiiEES4_EEvT0_T_RT1_Ry', symObjAddr: 0xB57C, symBinAddr: 0x10000BED8, symSize: 0xB8 }
  - { offsetInCU: 0x131F5, offset: 0x131F5, size: 0x8, addend: 0x0, symName: '__ZNSt3__133__bitset_partition_partial_blocksB8ue170006INS_17_ClassicAlgPolicyERZ4mainE3$_0PNS_4pairIiiEES5_EEvRT1_S8_T0_RT2_RySC_', symObjAddr: 0xB634, symBinAddr: 0x10000BF90, symSize: 0x318 }
  - { offsetInCU: 0x13379, offset: 0x13379, size: 0x8, addend: 0x0, symName: __ZNSt3__122__make_exception_guardB8ue170006INS_6vectorIiNS_9allocatorIiEEE16__destroy_vectorEEENS_28__exception_guard_exceptionsIT_EES7_, symObjAddr: 0xBA64, symBinAddr: 0x10000C3C0, symSize: 0x40 }
  - { offsetInCU: 0x133AE, offset: 0x133AE, size: 0x8, addend: 0x0, symName: __ZNSt3__119__allocate_at_leastB8ue170006INS_9allocatorIiEEEENS_19__allocation_resultINS_16allocator_traitsIT_E7pointerEEERS5_m, symObjAddr: 0xBE58, symBinAddr: 0x10000C7B4, symSize: 0x40 }
  - { offsetInCU: 0x133F1, offset: 0x133F1, size: 0x8, addend: 0x0, symName: __ZNSt3__112__to_addressB8ue170006IiEEPT_S2_, symObjAddr: 0xC17C, symBinAddr: 0x10000CAD8, symSize: 0x14 }
  - { offsetInCU: 0x13426, offset: 0x13426, size: 0x8, addend: 0x0, symName: __ZNSt3__122__make_exception_guardB8ue170006INS_6vectorINS1_IiNS_9allocatorIiEEEENS2_IS4_EEE16__destroy_vectorEEENS_28__exception_guard_exceptionsIT_EES9_, symObjAddr: 0xC798, symBinAddr: 0x10000D0F4, symSize: 0x40 }
  - { offsetInCU: 0x1345B, offset: 0x1345B, size: 0x8, addend: 0x0, symName: __ZNSt3__119__allocate_at_leastB8ue170006INS_9allocatorINS_6vectorIiNS1_IiEEEEEEEENS_19__allocation_resultINS_16allocator_traitsIT_E7pointerEEERS8_m, symObjAddr: 0xCB94, symBinAddr: 0x10000D4F0, symSize: 0x40 }
  - { offsetInCU: 0x1349E, offset: 0x1349E, size: 0x8, addend: 0x0, symName: __ZNSt3__112__to_addressB8ue170006INS_6vectorIiNS_9allocatorIiEEEEEEPT_S6_, symObjAddr: 0xCEDC, symBinAddr: 0x10000D838, symSize: 0x14 }
  - { offsetInCU: 0x134D3, offset: 0x134D3, size: 0x8, addend: 0x0, symName: __ZNSt3__130__uninitialized_allocator_copyB8ue170006INS_9allocatorIiEEPiS3_S3_EET2_RT_T0_T1_S4_, symObjAddr: 0xD31C, symBinAddr: 0x10000DC78, symSize: 0x80 }
  - { offsetInCU: 0x13570, offset: 0x13570, size: 0x8, addend: 0x0, symName: __ZNSt3__114__unwrap_rangeB8ue170006IPiS1_EENS_4pairIT0_S3_EET_S5_, symObjAddr: 0xD39C, symBinAddr: 0x10000DCF8, symSize: 0x60 }
  - { offsetInCU: 0x135BC, offset: 0x135BC, size: 0x8, addend: 0x0, symName: __ZNSt3__135__uninitialized_allocator_copy_implB8ue170006INS_9allocatorIiEEiiiLPv0EEEPT2_RT_PT0_S9_S5_, symObjAddr: 0xD3FC, symBinAddr: 0x10000DD58, symSize: 0x38 }
  - { offsetInCU: 0x1363D, offset: 0x1363D, size: 0x8, addend: 0x0, symName: __ZNSt3__113__unwrap_iterB8ue170006IPiNS_18__unwrap_iter_implIS1_Lb1EEELi0EEEDTclsrT0_8__unwrapclsr3stdE7declvalIT_EEEES5_, symObjAddr: 0xD434, symBinAddr: 0x10000DD90, symSize: 0x24 }
  - { offsetInCU: 0x13681, offset: 0x13681, size: 0x8, addend: 0x0, symName: __ZNSt3__113__rewrap_iterB8ue170006IPiS1_NS_18__unwrap_iter_implIS1_Lb1EEEEET_S4_T0_, symObjAddr: 0xD458, symBinAddr: 0x10000DDB4, symSize: 0x3C }
  - { offsetInCU: 0x136D6, offset: 0x136D6, size: 0x8, addend: 0x0, symName: __ZNSt3__19make_pairB8ue170006IPiS1_EENS_4pairINS_18__unwrap_ref_decayIT_E4typeENS3_IT0_E4typeEEEOS4_OS7_, symObjAddr: 0xD494, symBinAddr: 0x10000DDF0, symSize: 0x38 }
  - { offsetInCU: 0x13828, offset: 0x13828, size: 0x8, addend: 0x0, symName: __ZNSt3__14copyB8ue170006IPiS1_EET0_T_S3_S2_, symObjAddr: 0xD53C, symBinAddr: 0x10000DE98, symSize: 0x40 }
  - { offsetInCU: 0x13882, offset: 0x13882, size: 0x8, addend: 0x0, symName: __ZNSt3__16__copyB8ue170006INS_17_ClassicAlgPolicyEPiS2_S2_EENS_4pairIT0_T2_EES4_T1_S5_, symObjAddr: 0xD57C, symBinAddr: 0x10000DED8, symSize: 0x44 }
  - { offsetInCU: 0x138EE, offset: 0x138EE, size: 0x8, addend: 0x0, symName: __ZNSt3__123__dispatch_copy_or_moveB8ue170006INS_17_ClassicAlgPolicyENS_11__copy_loopIS1_EENS_14__copy_trivialEPiS5_S5_EENS_4pairIT2_T4_EES7_T3_S8_, symObjAddr: 0xD5C0, symBinAddr: 0x10000DF1C, symSize: 0x44 }
  - { offsetInCU: 0x1396C, offset: 0x1396C, size: 0x8, addend: 0x0, symName: __ZNSt3__121__unwrap_and_dispatchB8ue170006INS_10__overloadINS_11__copy_loopINS_17_ClassicAlgPolicyEEENS_14__copy_trivialEEEPiS7_S7_Li0EEENS_4pairIT0_T2_EES9_T1_SA_, symObjAddr: 0xD604, symBinAddr: 0x10000DF60, symSize: 0xB4 }
  - { offsetInCU: 0x13A40, offset: 0x13A40, size: 0x8, addend: 0x0, symName: __ZNSt3__114__rewrap_rangeB8ue170006IPiS1_EET_S2_T0_, symObjAddr: 0xD700, symBinAddr: 0x10000E05C, symSize: 0x2C }
  - { offsetInCU: 0x13A8C, offset: 0x13A8C, size: 0x8, addend: 0x0, symName: __ZNSt3__119__copy_trivial_implB8ue170006IiiEENS_4pairIPT_PT0_EES3_S3_S5_, symObjAddr: 0xD72C, symBinAddr: 0x10000E088, symSize: 0x80 }
  - { offsetInCU: 0x13AF4, offset: 0x13AF4, size: 0x8, addend: 0x0, symName: __ZNSt3__119__constexpr_memmoveB8ue170006IiiLi0EEEPT_S2_PT0_NS_15__element_countE, symObjAddr: 0xD7AC, symBinAddr: 0x10000E108, symSize: 0x64 }
  - { offsetInCU: 0x13B62, offset: 0x13B62, size: 0x8, addend: 0x0, symName: __ZNSt3__19make_pairB8ue170006IRPiS1_EENS_4pairINS_18__unwrap_ref_decayIT_E4typeENS4_IT0_E4typeEEEOS5_OS8_, symObjAddr: 0xD810, symBinAddr: 0x10000E16C, symSize: 0x38 }
  - { offsetInCU: 0x13C04, offset: 0x13C04, size: 0x8, addend: 0x0, symName: __ZNSt3__122__make_exception_guardB8ue170006INS_6vectorINS1_INS1_IiNS_9allocatorIiEEEENS2_IS4_EEEENS2_IS6_EEE16__destroy_vectorEEENS_28__exception_guard_exceptionsIT_EESB_, symObjAddr: 0xDE00, symBinAddr: 0x10000E75C, symSize: 0x40 }
  - { offsetInCU: 0x13C39, offset: 0x13C39, size: 0x8, addend: 0x0, symName: __ZNSt3__119__allocate_at_leastB8ue170006INS_9allocatorINS_6vectorINS2_IiNS1_IiEEEENS1_IS4_EEEEEEEENS_19__allocation_resultINS_16allocator_traitsIT_E7pointerEEERSA_m, symObjAddr: 0xE1FC, symBinAddr: 0x10000EB58, symSize: 0x40 }
  - { offsetInCU: 0x13C7C, offset: 0x13C7C, size: 0x8, addend: 0x0, symName: __ZNSt3__112__to_addressB8ue170006INS_6vectorINS1_IiNS_9allocatorIiEEEENS2_IS4_EEEEEEPT_S8_, symObjAddr: 0xE544, symBinAddr: 0x10000EEA0, symSize: 0x14 }
  - { offsetInCU: 0x13CB1, offset: 0x13CB1, size: 0x8, addend: 0x0, symName: __ZNSt3__130__uninitialized_allocator_copyB8ue170006INS_9allocatorINS_6vectorIiNS1_IiEEEEEEPS4_S6_S6_EET2_RT_T0_T1_S7_, symObjAddr: 0xE984, symBinAddr: 0x10000F2E0, symSize: 0x80 }
  - { offsetInCU: 0x13D4E, offset: 0x13D4E, size: 0x8, addend: 0x0, symName: __ZNSt3__114__unwrap_rangeB8ue170006IPNS_6vectorIiNS_9allocatorIiEEEES5_EENS_4pairIT0_S7_EET_S9_, symObjAddr: 0xEA04, symBinAddr: 0x10000F360, symSize: 0x60 }
  - { offsetInCU: 0x13D9A, offset: 0x13D9A, size: 0x8, addend: 0x0, symName: __ZNSt3__135__uninitialized_allocator_copy_implB8ue170006INS_9allocatorINS_6vectorIiNS1_IiEEEEEEPS4_S6_S6_EET2_RT_T0_T1_S7_, symObjAddr: 0xEA64, symBinAddr: 0x10000F3C0, symSize: 0xF4 }
  - { offsetInCU: 0x13E38, offset: 0x13E38, size: 0x8, addend: 0x0, symName: __ZNSt3__113__unwrap_iterB8ue170006IPNS_6vectorIiNS_9allocatorIiEEEENS_18__unwrap_iter_implIS5_Lb1EEELi0EEEDTclsrT0_8__unwrapclsr3stdE7declvalIT_EEEES9_, symObjAddr: 0xEB58, symBinAddr: 0x10000F4B4, symSize: 0x24 }
  - { offsetInCU: 0x13E7C, offset: 0x13E7C, size: 0x8, addend: 0x0, symName: __ZNSt3__113__rewrap_iterB8ue170006IPNS_6vectorIiNS_9allocatorIiEEEES5_NS_18__unwrap_iter_implIS5_Lb1EEEEET_S8_T0_, symObjAddr: 0xEB7C, symBinAddr: 0x10000F4D8, symSize: 0x3C }
  - { offsetInCU: 0x13ED1, offset: 0x13ED1, size: 0x8, addend: 0x0, symName: __ZNSt3__19make_pairB8ue170006IPNS_6vectorIiNS_9allocatorIiEEEES5_EENS_4pairINS_18__unwrap_ref_decayIT_E4typeENS7_IT0_E4typeEEEOS8_OSB_, symObjAddr: 0xEBB8, symBinAddr: 0x10000F514, symSize: 0x38 }
  - { offsetInCU: 0x13FF4, offset: 0x13FF4, size: 0x8, addend: 0x0, symName: __ZNSt3__122__make_exception_guardB8ue170006INS_29_AllocatorDestroyRangeReverseINS_9allocatorINS_6vectorIiNS2_IiEEEEEEPS5_EEEENS_28__exception_guard_exceptionsIT_EESA_, symObjAddr: 0xEC60, symBinAddr: 0x10000F5BC, symSize: 0x4C }
  - { offsetInCU: 0x1402A, offset: 0x1402A, size: 0x8, addend: 0x0, symName: __ZNSt3__119__allocator_destroyB8ue170006INS_9allocatorINS_6vectorIiNS1_IiEEEEEENS_16reverse_iteratorIPS4_EES8_EEvRT_T0_T1_, symObjAddr: 0xEEF0, symBinAddr: 0x10000F84C, symSize: 0x70 }
  - { offsetInCU: 0x1408D, offset: 0x1408D, size: 0x8, addend: 0x0, symName: __ZNSt3__1neB8ue170006IPNS_6vectorIiNS_9allocatorIiEEEES5_EEbRKNS_16reverse_iteratorIT_EERKNS6_IT0_EE, symObjAddr: 0xEF94, symBinAddr: 0x10000F8F0, symSize: 0x48 }
  - { offsetInCU: 0x140D9, offset: 0x140D9, size: 0x8, addend: 0x0, symName: __ZNSt3__112__to_addressB8ue170006INS_16reverse_iteratorIPNS_6vectorIiNS_9allocatorIiEEEEEEvEEu7__decayIDTclsr19__to_address_helperIT_EE6__callclsr3stdE7declvalIRKS8_EEEEESA_, symObjAddr: 0xEFDC, symBinAddr: 0x10000F938, symSize: 0x24 }
  - { offsetInCU: 0x145E4, offset: 0x145E4, size: 0x8, addend: 0x0, symName: __ZNSt3__14swapB8ue170006IPPNS_5tupleIJiiiEEEEENS_9enable_ifIXaasr21is_move_constructibleIT_EE5valuesr18is_move_assignableIS6_EE5valueEvE4typeERS6_S9_, symObjAddr: 0x10B1C, symBinAddr: 0x100011478, symSize: 0x3C }
  - { offsetInCU: 0x14635, offset: 0x14635, size: 0x8, addend: 0x0, symName: __ZNSt3__14moveB8ue170006IPPNS_5tupleIJiiiEEES4_EET0_T_S6_S5_, symObjAddr: 0x10C00, symBinAddr: 0x10001155C, symSize: 0x40 }
  - { offsetInCU: 0x146AB, offset: 0x146AB, size: 0x8, addend: 0x0, symName: __ZNSt3__16__moveB8ue170006INS_17_ClassicAlgPolicyEPPNS_5tupleIJiiiEEES5_S5_EENS_4pairIT0_T2_EES7_T1_S8_, symObjAddr: 0x10D08, symBinAddr: 0x100011664, symSize: 0x44 }
  - { offsetInCU: 0x14717, offset: 0x14717, size: 0x8, addend: 0x0, symName: __ZNSt3__123__dispatch_copy_or_moveB8ue170006INS_17_ClassicAlgPolicyENS_11__move_loopIS1_EENS_14__move_trivialEPPNS_5tupleIJiiiEEES8_S8_EENS_4pairIT2_T4_EESA_T3_SB_, symObjAddr: 0x10D4C, symBinAddr: 0x1000116A8, symSize: 0x44 }
  - { offsetInCU: 0x14795, offset: 0x14795, size: 0x8, addend: 0x0, symName: __ZNSt3__121__unwrap_and_dispatchB8ue170006INS_10__overloadINS_11__move_loopINS_17_ClassicAlgPolicyEEENS_14__move_trivialEEEPPNS_5tupleIJiiiEEESA_SA_Li0EEENS_4pairIT0_T2_EESC_T1_SD_, symObjAddr: 0x10D90, symBinAddr: 0x1000116EC, symSize: 0xB4 }
  - { offsetInCU: 0x14823, offset: 0x14823, size: 0x8, addend: 0x0, symName: __ZNSt3__114__unwrap_rangeB8ue170006IPPNS_5tupleIJiiiEEES4_EENS_4pairIT0_S6_EET_S8_, symObjAddr: 0x10E44, symBinAddr: 0x1000117A0, symSize: 0x60 }
  - { offsetInCU: 0x149E7, offset: 0x149E7, size: 0x8, addend: 0x0, symName: __ZNSt3__113__unwrap_iterB8ue170006IPPNS_5tupleIJiiiEEENS_18__unwrap_iter_implIS4_Lb1EEELi0EEEDTclsrT0_8__unwrapclsr3stdE7declvalIT_EEEES8_, symObjAddr: 0x10EEC, symBinAddr: 0x100011848, symSize: 0x24 }
  - { offsetInCU: 0x14A2B, offset: 0x14A2B, size: 0x8, addend: 0x0, symName: __ZNSt3__19make_pairB8ue170006IPPNS_5tupleIJiiiEEES4_EENS_4pairINS_18__unwrap_ref_decayIT_E4typeENS6_IT0_E4typeEEEOS7_OSA_, symObjAddr: 0x10F10, symBinAddr: 0x10001186C, symSize: 0x38 }
  - { offsetInCU: 0x14A7A, offset: 0x14A7A, size: 0x8, addend: 0x0, symName: __ZNSt3__114__rewrap_rangeB8ue170006IPPNS_5tupleIJiiiEEES4_EET_S5_T0_, symObjAddr: 0x10F48, symBinAddr: 0x1000118A4, symSize: 0x2C }
  - { offsetInCU: 0x14AC6, offset: 0x14AC6, size: 0x8, addend: 0x0, symName: __ZNSt3__113__rewrap_iterB8ue170006IPPNS_5tupleIJiiiEEES4_NS_18__unwrap_iter_implIS4_Lb1EEEEET_S7_T0_, symObjAddr: 0x10F74, symBinAddr: 0x1000118D0, symSize: 0x3C }
  - { offsetInCU: 0x14B1B, offset: 0x14B1B, size: 0x8, addend: 0x0, symName: __ZNSt3__119__copy_trivial_implB8ue170006IPNS_5tupleIJiiiEEES3_EENS_4pairIPT_PT0_EES6_S6_S8_, symObjAddr: 0x10FB0, symBinAddr: 0x10001190C, symSize: 0x80 }
  - { offsetInCU: 0x14B83, offset: 0x14B83, size: 0x8, addend: 0x0, symName: __ZNSt3__119__constexpr_memmoveB8ue170006IPNS_5tupleIJiiiEEES3_Li0EEEPT_S5_PT0_NS_15__element_countE, symObjAddr: 0x11030, symBinAddr: 0x10001198C, symSize: 0x64 }
  - { offsetInCU: 0x14BF1, offset: 0x14BF1, size: 0x8, addend: 0x0, symName: __ZNSt3__19make_pairB8ue170006IRPPNS_5tupleIJiiiEEES4_EENS_4pairINS_18__unwrap_ref_decayIT_E4typeENS7_IT0_E4typeEEEOS8_OSB_, symObjAddr: 0x11094, symBinAddr: 0x1000119F0, symSize: 0x38 }
  - { offsetInCU: 0x14C93, offset: 0x14C93, size: 0x8, addend: 0x0, symName: __ZNSt3__18distanceB8ue170006INS_13move_iteratorIPPNS_5tupleIJiiiEEEEEEENS_15iterator_traitsIT_E15difference_typeES8_S8_, symObjAddr: 0x112FC, symBinAddr: 0x100011C58, symSize: 0x3C }
  - { offsetInCU: 0x14CD6, offset: 0x14CD6, size: 0x8, addend: 0x0, symName: __ZNSt3__110__distanceB8ue170006INS_13move_iteratorIPPNS_5tupleIJiiiEEEEEEENS_15iterator_traitsIT_E15difference_typeES8_S8_NS_26random_access_iterator_tagE, symObjAddr: 0x11500, symBinAddr: 0x100011E5C, symSize: 0x30 }
  - { offsetInCU: 0x14D23, offset: 0x14D23, size: 0x8, addend: 0x0, symName: __ZNSt3__1miB8ue170006IPPNS_5tupleIJiiiEEES4_EEDTmicldtfp_4baseEcldtfp0_4baseEERKNS_13move_iteratorIT_EERKNS6_IT0_EE, symObjAddr: 0x11530, symBinAddr: 0x100011E8C, symSize: 0x48 }
  - { offsetInCU: 0x14D72, offset: 0x14D72, size: 0x8, addend: 0x0, symName: __ZNSt3__113move_backwardB8ue170006IPPNS_5tupleIJiiiEEES4_EET0_T_S6_S5_, symObjAddr: 0x11670, symBinAddr: 0x100011FCC, symSize: 0x40 }
  - { offsetInCU: 0x14DCC, offset: 0x14DCC, size: 0x8, addend: 0x0, symName: __ZNSt3__115__move_backwardB8ue170006INS_17_ClassicAlgPolicyEPPNS_5tupleIJiiiEEES5_S5_EENS_4pairIT0_T2_EES7_T1_S8_, symObjAddr: 0x116B0, symBinAddr: 0x10001200C, symSize: 0x44 }
  - { offsetInCU: 0x14E38, offset: 0x14E38, size: 0x8, addend: 0x0, symName: __ZNSt3__123__dispatch_copy_or_moveB8ue170006INS_17_ClassicAlgPolicyENS_20__move_backward_loopIS1_EENS_23__move_backward_trivialEPPNS_5tupleIJiiiEEES8_S8_EENS_4pairIT2_T4_EESA_T3_SB_, symObjAddr: 0x116F4, symBinAddr: 0x100012050, symSize: 0x44 }
  - { offsetInCU: 0x14EB6, offset: 0x14EB6, size: 0x8, addend: 0x0, symName: __ZNSt3__121__unwrap_and_dispatchB8ue170006INS_10__overloadINS_20__move_backward_loopINS_17_ClassicAlgPolicyEEENS_23__move_backward_trivialEEEPPNS_5tupleIJiiiEEESA_SA_Li0EEENS_4pairIT0_T2_EESC_T1_SD_, symObjAddr: 0x11738, symBinAddr: 0x100012094, symSize: 0xB4 }
  - { offsetInCU: 0x14F8A, offset: 0x14F8A, size: 0x8, addend: 0x0, symName: __ZNSt3__128__copy_backward_trivial_implB8ue170006IPNS_5tupleIJiiiEEES3_EENS_4pairIPT_PT0_EES6_S6_S8_, symObjAddr: 0x11834, symBinAddr: 0x100012190, symSize: 0x90 }
  - { offsetInCU: 0x14FF2, offset: 0x14FF2, size: 0x8, addend: 0x0, symName: __ZNSt3__19make_pairB8ue170006IRPPNS_5tupleIJiiiEEES5_EENS_4pairINS_18__unwrap_ref_decayIT_E4typeENS7_IT0_E4typeEEEOS8_OSB_, symObjAddr: 0x118C4, symBinAddr: 0x100012220, symSize: 0x38 }
  - { offsetInCU: 0x15041, offset: 0x15041, size: 0x8, addend: 0x0, symName: __ZNSt3__119__allocate_at_leastB8ue170006INS_9allocatorIPNS_5tupleIJiiiEEEEEEENS_19__allocation_resultINS_16allocator_traitsIT_E7pointerEEERS8_m, symObjAddr: 0x11A7C, symBinAddr: 0x1000123D8, symSize: 0x40 }
  - { offsetInCU: 0x15084, offset: 0x15084, size: 0x8, addend: 0x0, symName: __ZNSt3__19use_facetB8ue170006INS_5ctypeIcEEEERKT_RKNS_6localeE, symObjAddr: 0x12434, symBinAddr: 0x100012D90, symSize: 0x2C }
  - { offsetInCU: 0x15B34, offset: 0x15B34, size: 0x8, addend: 0x0, symName: __ZSt28__throw_bad_array_new_lengthB8ue170006v, symObjAddr: 0x3DA0, symBinAddr: 0x1000046FC, symSize: 0x34 }
  - { offsetInCU: 0x15B73, offset: 0x15B73, size: 0x8, addend: 0x0, symName: _B, symObjAddr: 0x8B800, symBinAddr: 0x10001802C, symSize: 0x0 }
  - { offsetInCU: 0x15B88, offset: 0x15B88, size: 0x8, addend: 0x0, symName: _dx, symObjAddr: 0x129D0, symBinAddr: 0x100018000, symSize: 0x0 }
  - { offsetInCU: 0x15BB3, offset: 0x15BB3, size: 0x8, addend: 0x0, symName: _dy, symObjAddr: 0x129E0, symBinAddr: 0x100018010, symSize: 0x0 }
  - { offsetInCU: 0x162E8, offset: 0x162E8, size: 0x8, addend: 0x0, symName: __ZNSt3__16vectorINS_4pairIiiEENS_9allocatorIS2_EEE26__swap_out_circular_bufferERNS_14__split_bufferIS2_RS4_EE, symObjAddr: 0x36BC, symBinAddr: 0x100004018, symSize: 0x110 }
  - { offsetInCU: 0x18F51, offset: 0x18F51, size: 0x8, addend: 0x0, symName: _main, symObjAddr: 0x0, symBinAddr: 0x10000095C, symSize: 0xC24 }
  - { offsetInCU: 0x1912A, offset: 0x1912A, size: 0x8, addend: 0x0, symName: __ZNSt3__16vectorINS_4pairIiiEENS_9allocatorIS2_EEEC1B8ue170006Ev, symObjAddr: 0xC24, symBinAddr: 0x100001580, symSize: 0x2C }
  - { offsetInCU: 0x19154, offset: 0x19154, size: 0x8, addend: 0x0, symName: __ZNSt3__16vectorINS_4pairIiiEENS_9allocatorIS2_EEE9push_backB8ue170006EOS2_, symObjAddr: 0xC50, symBinAddr: 0x1000015AC, symSize: 0x6C }
  - { offsetInCU: 0x1918B, offset: 0x1918B, size: 0x8, addend: 0x0, symName: __ZNSt3__16vectorINS_4pairIiiEENS_9allocatorIS2_EEEixB8ue170006Em, symObjAddr: 0xCF0, symBinAddr: 0x10000164C, symSize: 0x24 }
  - { offsetInCU: 0x191C2, offset: 0x191C2, size: 0x8, addend: 0x0, symName: __ZNSt3__14pairIiiEaSB8ue170006ERKS1_, symObjAddr: 0xD14, symBinAddr: 0x100001670, symSize: 0x30 }
  - { offsetInCU: 0x191F7, offset: 0x191F7, size: 0x8, addend: 0x0, symName: __ZNSt3__13mapIiiNS_4lessIiEENS_9allocatorINS_4pairIKiiEEEEEC1B8ue170006Ev, symObjAddr: 0xD44, symBinAddr: 0x1000016A0, symSize: 0x2C }
  - { offsetInCU: 0x19221, offset: 0x19221, size: 0x8, addend: 0x0, symName: __ZNSt3__16vectorINS_4pairIiiEENS_9allocatorIS2_EEE5beginB8ue170006Ev, symObjAddr: 0xDAC, symBinAddr: 0x100001708, symSize: 0x30 }
  - { offsetInCU: 0x19249, offset: 0x19249, size: 0x8, addend: 0x0, symName: __ZNSt3__16vectorINS_4pairIiiEENS_9allocatorIS2_EEE3endB8ue170006Ev, symObjAddr: 0xDDC, symBinAddr: 0x100001738, symSize: 0x30 }
  - { offsetInCU: 0x19271, offset: 0x19271, size: 0x8, addend: 0x0, symName: __ZNSt3__13mapIiiNS_4lessIiEENS_9allocatorINS_4pairIKiiEEEEE4findB8ue170006ERS5_, symObjAddr: 0xE3C, symBinAddr: 0x100001798, symSize: 0x40 }
  - { offsetInCU: 0x192A6, offset: 0x192A6, size: 0x8, addend: 0x0, symName: __ZNSt3__13mapIiiNS_4lessIiEENS_9allocatorINS_4pairIKiiEEEEE3endB8ue170006Ev, symObjAddr: 0xE7C, symBinAddr: 0x1000017D8, symSize: 0x38 }
  - { offsetInCU: 0x192CC, offset: 0x192CC, size: 0x8, addend: 0x0, symName: __ZNSt3__13mapIiiNS_4lessIiEENS_9allocatorINS_4pairIKiiEEEEEixERS5_, symObjAddr: 0xEB4, symBinAddr: 0x100001810, symSize: 0x80 }
  - { offsetInCU: 0x19303, offset: 0x19303, size: 0x8, addend: 0x0, symName: __ZNSt3__16vectorIiNS_9allocatorIiEEEC1EmRKi, symObjAddr: 0xF74, symBinAddr: 0x1000018D0, symSize: 0x3C }
  - { offsetInCU: 0x1934D, offset: 0x1934D, size: 0x8, addend: 0x0, symName: __ZNSt3__16vectorINS0_IiNS_9allocatorIiEEEENS1_IS3_EEEC1EmRKS3_, symObjAddr: 0xFB0, symBinAddr: 0x10000190C, symSize: 0x3C }
  - { offsetInCU: 0x19397, offset: 0x19397, size: 0x8, addend: 0x0, symName: __ZNSt3__16vectorIiNS_9allocatorIiEEED1B8ue170006Ev, symObjAddr: 0xFEC, symBinAddr: 0x100001948, symSize: 0x2C }
  - { offsetInCU: 0x193C1, offset: 0x193C1, size: 0x8, addend: 0x0, symName: __ZNSt3__16vectorINS0_INS0_IiNS_9allocatorIiEEEENS1_IS3_EEEENS1_IS5_EEEC1EmRKS5_, symObjAddr: 0x1018, symBinAddr: 0x100001974, symSize: 0x3C }
  - { offsetInCU: 0x1940B, offset: 0x1940B, size: 0x8, addend: 0x0, symName: __ZNSt3__16vectorINS0_IiNS_9allocatorIiEEEENS1_IS3_EEED1B8ue170006Ev, symObjAddr: 0x1054, symBinAddr: 0x1000019B0, symSize: 0x2C }
  - { offsetInCU: 0x19435, offset: 0x19435, size: 0x8, addend: 0x0, symName: __ZNSt3__16vectorINS0_IiNS_9allocatorIiEEEENS1_IS3_EEEixB8ue170006Em, symObjAddr: 0x1080, symBinAddr: 0x1000019DC, symSize: 0x2C }
  - { offsetInCU: 0x1946C, offset: 0x1946C, size: 0x8, addend: 0x0, symName: __ZNSt3__16vectorIiNS_9allocatorIiEEEixB8ue170006Em, symObjAddr: 0x10AC, symBinAddr: 0x100001A08, symSize: 0x24 }
  - { offsetInCU: 0x194DF, offset: 0x194DF, size: 0x8, addend: 0x0, symName: __ZNSt3__15queueINS_5tupleIJiiiEEENS_5dequeIS2_NS_9allocatorIS2_EEEEEC1B8ue170006Ev, symObjAddr: 0x10D0, symBinAddr: 0x100001A2C, symSize: 0x2C }
  - { offsetInCU: 0x19509, offset: 0x19509, size: 0x8, addend: 0x0, symName: __ZNSt3__16vectorINS0_INS0_IiNS_9allocatorIiEEEENS1_IS3_EEEENS1_IS5_EEEixB8ue170006Em, symObjAddr: 0x10FC, symBinAddr: 0x100001A58, symSize: 0x2C }
  - { offsetInCU: 0x19540, offset: 0x19540, size: 0x8, addend: 0x0, symName: __ZNSt3__15queueINS_5tupleIJiiiEEENS_5dequeIS2_NS_9allocatorIS2_EEEEE4pushB8ue170006EOS2_, symObjAddr: 0x1128, symBinAddr: 0x100001A84, symSize: 0x2C }
  - { offsetInCU: 0x1957A, offset: 0x1957A, size: 0x8, addend: 0x0, symName: __ZNSt3__15tupleIJiiiEEC1B8ue170006IJRiS3_iELi0EEEDpOT_, symObjAddr: 0x1154, symBinAddr: 0x100001AB0, symSize: 0x44 }
  - { offsetInCU: 0x195EC, offset: 0x195EC, size: 0x8, addend: 0x0, symName: __ZNKSt3__15queueINS_5tupleIJiiiEEENS_5dequeIS2_NS_9allocatorIS2_EEEEE5emptyB8ue170006Ev, symObjAddr: 0x1198, symBinAddr: 0x100001AF4, symSize: 0x28 }
  - { offsetInCU: 0x19612, offset: 0x19612, size: 0x8, addend: 0x0, symName: __ZNSt3__15queueINS_5tupleIJiiiEEENS_5dequeIS2_NS_9allocatorIS2_EEEEE5frontB8ue170006Ev, symObjAddr: 0x11E4, symBinAddr: 0x100001B40, symSize: 0x24 }
  - { offsetInCU: 0x19638, offset: 0x19638, size: 0x8, addend: 0x0, symName: __ZNSt3__15queueINS_5tupleIJiiiEEENS_5dequeIS2_NS_9allocatorIS2_EEEEE3popB8ue170006Ev, symObjAddr: 0x1258, symBinAddr: 0x100001BB4, symSize: 0x24 }
  - { offsetInCU: 0x1965E, offset: 0x1965E, size: 0x8, addend: 0x0, symName: __ZNSt3__15tupleIJiiiEEC1B8ue170006IJRiS3_S3_ELi0EEEDpOT_, symObjAddr: 0x12A8, symBinAddr: 0x100001C04, symSize: 0x44 }
  - { offsetInCU: 0x19780, offset: 0x19780, size: 0x8, addend: 0x0, symName: __ZNSt3__113basic_ostreamIcNS_11char_traitsIcEEElsB8ue170006EPFRS3_S4_E, symObjAddr: 0x12EC, symBinAddr: 0x100001C48, symSize: 0x2C }
  - { offsetInCU: 0x197B4, offset: 0x197B4, size: 0x8, addend: 0x0, symName: __ZNSt3__15queueINS_5tupleIJiiiEEENS_5dequeIS2_NS_9allocatorIS2_EEEEED1Ev, symObjAddr: 0x1370, symBinAddr: 0x100001CCC, symSize: 0x2C }
  - { offsetInCU: 0x197E1, offset: 0x197E1, size: 0x8, addend: 0x0, symName: __ZNSt3__16vectorINS0_INS0_IiNS_9allocatorIiEEEENS1_IS3_EEEENS1_IS5_EEED1B8ue170006Ev, symObjAddr: 0x139C, symBinAddr: 0x100001CF8, symSize: 0x2C }
  - { offsetInCU: 0x1980B, offset: 0x1980B, size: 0x8, addend: 0x0, symName: __ZNSt3__13mapIiiNS_4lessIiEENS_9allocatorINS_4pairIKiiEEEEED1B8ue170006Ev, symObjAddr: 0x13C8, symBinAddr: 0x100001D24, symSize: 0x2C }
  - { offsetInCU: 0x19835, offset: 0x19835, size: 0x8, addend: 0x0, symName: __ZNSt3__16vectorINS_4pairIiiEENS_9allocatorIS2_EEED1B8ue170006Ev, symObjAddr: 0x13F4, symBinAddr: 0x100001D50, symSize: 0x2C }
  - { offsetInCU: 0x1985F, offset: 0x1985F, size: 0x8, addend: 0x0, symName: __ZNSt3__14pairIiiEC1B8ue170006IRiS3_LPv0EEEOT_OT0_, symObjAddr: 0x1420, symBinAddr: 0x100001D7C, symSize: 0x3C }
  - { offsetInCU: 0x198BD, offset: 0x198BD, size: 0x8, addend: 0x0, symName: __ZNSt3__14pairIiiEC2B8ue170006IRiS3_LPv0EEEOT_OT0_, symObjAddr: 0x145C, symBinAddr: 0x100001DB8, symSize: 0x34 }
  - { offsetInCU: 0x1991B, offset: 0x1991B, size: 0x8, addend: 0x0, symName: __ZNSt3__15tupleIJiiiEEC2B8ue170006IJRiS3_iELi0EEEDpOT_, symObjAddr: 0x1490, symBinAddr: 0x100001DEC, symSize: 0x44 }
  - { offsetInCU: 0x1998D, offset: 0x1998D, size: 0x8, addend: 0x0, symName: __ZNSt3__112__tuple_implINS_15__tuple_indicesIJLm0ELm1ELm2EEEEJiiiEEC1B8ue170006IJLm0ELm1ELm2EEJiiiEJEJEJRiS5_iEEENS1_IJXspT_EEEENS_13__tuple_typesIJDpT0_EEENS1_IJXspT1_EEEENS7_IJDpT2_EEEDpOT3_, symObjAddr: 0x14D4, symBinAddr: 0x100001E30, symSize: 0x44 }
  - { offsetInCU: 0x19A5C, offset: 0x19A5C, size: 0x8, addend: 0x0, symName: __ZNSt3__112__tuple_implINS_15__tuple_indicesIJLm0ELm1ELm2EEEEJiiiEEC2B8ue170006IJLm0ELm1ELm2EEJiiiEJEJEJRiS5_iEEENS1_IJXspT_EEEENS_13__tuple_typesIJDpT0_EEENS1_IJXspT1_EEEENS7_IJDpT2_EEEDpOT3_, symObjAddr: 0x1518, symBinAddr: 0x100001E74, symSize: 0x5C }
  - { offsetInCU: 0x19B2B, offset: 0x19B2B, size: 0x8, addend: 0x0, symName: __ZNSt3__112__tuple_leafILm0EiLb0EEC2B8ue170006IRivEEOT_, symObjAddr: 0x1574, symBinAddr: 0x100001ED0, symSize: 0x24 }
  - { offsetInCU: 0x19B6E, offset: 0x19B6E, size: 0x8, addend: 0x0, symName: __ZNSt3__112__tuple_leafILm1EiLb0EEC2B8ue170006IRivEEOT_, symObjAddr: 0x1598, symBinAddr: 0x100001EF4, symSize: 0x24 }
  - { offsetInCU: 0x19BB1, offset: 0x19BB1, size: 0x8, addend: 0x0, symName: __ZNSt3__112__tuple_leafILm2EiLb0EEC2B8ue170006IivEEOT_, symObjAddr: 0x15BC, symBinAddr: 0x100001F18, symSize: 0x24 }
  - { offsetInCU: 0x19BF4, offset: 0x19BF4, size: 0x8, addend: 0x0, symName: __ZNSt3__112__tuple_leafILm0EiLb0EE3getB8ue170006Ev, symObjAddr: 0x15E0, symBinAddr: 0x100001F3C, symSize: 0x14 }
  - { offsetInCU: 0x19C1A, offset: 0x19C1A, size: 0x8, addend: 0x0, symName: __ZNSt3__112__tuple_leafILm1EiLb0EE3getB8ue170006Ev, symObjAddr: 0x15F4, symBinAddr: 0x100001F50, symSize: 0x14 }
  - { offsetInCU: 0x19C40, offset: 0x19C40, size: 0x8, addend: 0x0, symName: __ZNSt3__112__tuple_leafILm2EiLb0EE3getB8ue170006Ev, symObjAddr: 0x1608, symBinAddr: 0x100001F64, symSize: 0x14 }
  - { offsetInCU: 0x19C70, offset: 0x19C70, size: 0x8, addend: 0x0, symName: __ZNKSt3__16__lessIvvEclB8ue170006IiiEEbRKT_RKT0_, symObjAddr: 0x1670, symBinAddr: 0x100001FCC, symSize: 0x34 }
  - { offsetInCU: 0x19CC4, offset: 0x19CC4, size: 0x8, addend: 0x0, symName: __ZNSt3__15tupleIJiiiEEC2B8ue170006IJRiS3_S3_ELi0EEEDpOT_, symObjAddr: 0x16A4, symBinAddr: 0x100002000, symSize: 0x44 }
  - { offsetInCU: 0x19D36, offset: 0x19D36, size: 0x8, addend: 0x0, symName: __ZNSt3__112__tuple_implINS_15__tuple_indicesIJLm0ELm1ELm2EEEEJiiiEEC1B8ue170006IJLm0ELm1ELm2EEJiiiEJEJEJRiS5_S5_EEENS1_IJXspT_EEEENS_13__tuple_typesIJDpT0_EEENS1_IJXspT1_EEEENS7_IJDpT2_EEEDpOT3_, symObjAddr: 0x16E8, symBinAddr: 0x100002044, symSize: 0x44 }
  - { offsetInCU: 0x19E05, offset: 0x19E05, size: 0x8, addend: 0x0, symName: __ZNSt3__112__tuple_implINS_15__tuple_indicesIJLm0ELm1ELm2EEEEJiiiEEC2B8ue170006IJLm0ELm1ELm2EEJiiiEJEJEJRiS5_S5_EEENS1_IJXspT_EEEENS_13__tuple_typesIJDpT0_EEENS1_IJXspT1_EEEENS7_IJDpT2_EEEDpOT3_, symObjAddr: 0x172C, symBinAddr: 0x100002088, symSize: 0x5C }
  - { offsetInCU: 0x19ED4, offset: 0x19ED4, size: 0x8, addend: 0x0, symName: __ZNSt3__112__tuple_leafILm2EiLb0EEC2B8ue170006IRivEEOT_, symObjAddr: 0x1788, symBinAddr: 0x1000020E4, symSize: 0x24 }
  - { offsetInCU: 0x19F17, offset: 0x19F17, size: 0x8, addend: 0x0, symName: __ZNSt3__15queueINS_5tupleIJiiiEEENS_5dequeIS2_NS_9allocatorIS2_EEEEED2Ev, symObjAddr: 0x17AC, symBinAddr: 0x100002108, symSize: 0x2C }
  - { offsetInCU: 0x19F44, offset: 0x19F44, size: 0x8, addend: 0x0, symName: __ZNSt3__15dequeINS_5tupleIJiiiEEENS_9allocatorIS2_EEED1B8ue170006Ev, symObjAddr: 0x17D8, symBinAddr: 0x100002134, symSize: 0x2C }
  - { offsetInCU: 0x19F6E, offset: 0x19F6E, size: 0x8, addend: 0x0, symName: __ZNSt3__15dequeINS_5tupleIJiiiEEENS_9allocatorIS2_EEED2B8ue170006Ev, symObjAddr: 0x1804, symBinAddr: 0x100002160, symSize: 0xA4 }
  - { offsetInCU: 0x19FC4, offset: 0x19FC4, size: 0x8, addend: 0x0, symName: __ZNSt3__15dequeINS_5tupleIJiiiEEENS_9allocatorIS2_EEE5clearEv, symObjAddr: 0x18A8, symBinAddr: 0x100002204, symSize: 0x194 }
  - { offsetInCU: 0x1A020, offset: 0x1A020, size: 0x8, addend: 0x0, symName: __ZNKSt3__15dequeINS_5tupleIJiiiEEENS_9allocatorIS2_EEE17__annotate_deleteB8ue170006Ev, symObjAddr: 0x1A3C, symBinAddr: 0x100002398, symSize: 0xEC }
  - { offsetInCU: 0x1A063, offset: 0x1A063, size: 0x8, addend: 0x0, symName: __ZNSt3__114__split_bufferIPNS_5tupleIJiiiEEENS_9allocatorIS3_EEE5beginB8ue170006Ev, symObjAddr: 0x1B28, symBinAddr: 0x100002484, symSize: 0x18 }
  - { offsetInCU: 0x1A089, offset: 0x1A089, size: 0x8, addend: 0x0, symName: __ZNSt3__114__split_bufferIPNS_5tupleIJiiiEEENS_9allocatorIS3_EEE3endB8ue170006Ev, symObjAddr: 0x1B40, symBinAddr: 0x10000249C, symSize: 0x18 }
  - { offsetInCU: 0x1A0AF, offset: 0x1A0AF, size: 0x8, addend: 0x0, symName: __ZNSt3__116allocator_traitsINS_9allocatorINS_5tupleIJiiiEEEEEE10deallocateB8ue170006ERS4_PS3_m, symObjAddr: 0x1B58, symBinAddr: 0x1000024B4, symSize: 0x34 }
  - { offsetInCU: 0x1A0F1, offset: 0x1A0F1, size: 0x8, addend: 0x0, symName: __ZNSt3__15dequeINS_5tupleIJiiiEEENS_9allocatorIS2_EEE7__allocB8ue170006Ev, symObjAddr: 0x1B8C, symBinAddr: 0x1000024E8, symSize: 0x28 }
  - { offsetInCU: 0x1A117, offset: 0x1A117, size: 0x8, addend: 0x0, symName: __ZNSt3__114__split_bufferIPNS_5tupleIJiiiEEENS_9allocatorIS3_EEED1Ev, symObjAddr: 0x1BB4, symBinAddr: 0x100002510, symSize: 0x2C }
  - { offsetInCU: 0x1A143, offset: 0x1A143, size: 0x8, addend: 0x0, symName: __ZNSt3__15dequeINS_5tupleIJiiiEEENS_9allocatorIS2_EEE5beginB8ue170006Ev, symObjAddr: 0x1BE0, symBinAddr: 0x10000253C, symSize: 0xC0 }
  - { offsetInCU: 0x1A178, offset: 0x1A178, size: 0x8, addend: 0x0, symName: __ZNSt3__15dequeINS_5tupleIJiiiEEENS_9allocatorIS2_EEE3endB8ue170006Ev, symObjAddr: 0x1CA0, symBinAddr: 0x1000025FC, symSize: 0xC4 }
  - { offsetInCU: 0x1A1BC, offset: 0x1A1BC, size: 0x8, addend: 0x0, symName: __ZNSt3__116allocator_traitsINS_9allocatorINS_5tupleIJiiiEEEEEE7destroyB8ue170006IS3_vEEvRS4_PT_, symObjAddr: 0x1DA4, symBinAddr: 0x100002700, symSize: 0x2C }
  - { offsetInCU: 0x1A1F9, offset: 0x1A1F9, size: 0x8, addend: 0x0, symName: __ZNKSt3__116__deque_iteratorINS_5tupleIJiiiEEEPS2_RS2_PS3_lLl341EEdeB8ue170006Ev, symObjAddr: 0x1DD0, symBinAddr: 0x10000272C, symSize: 0x18 }
  - { offsetInCU: 0x1A21F, offset: 0x1A21F, size: 0x8, addend: 0x0, symName: __ZNSt3__116__deque_iteratorINS_5tupleIJiiiEEEPS2_RS2_PS3_lLl341EEppB8ue170006Ev, symObjAddr: 0x1DE8, symBinAddr: 0x100002744, symSize: 0x70 }
  - { offsetInCU: 0x1A245, offset: 0x1A245, size: 0x8, addend: 0x0, symName: __ZNSt3__15dequeINS_5tupleIJiiiEEENS_9allocatorIS2_EEE6__sizeB8ue170006Ev, symObjAddr: 0x1E58, symBinAddr: 0x1000027B4, symSize: 0x28 }
  - { offsetInCU: 0x1A26B, offset: 0x1A26B, size: 0x8, addend: 0x0, symName: __ZNKSt3__114__split_bufferIPNS_5tupleIJiiiEEENS_9allocatorIS3_EEE4sizeB8ue170006Ev, symObjAddr: 0x1E80, symBinAddr: 0x1000027DC, symSize: 0x28 }
  - { offsetInCU: 0x1A291, offset: 0x1A291, size: 0x8, addend: 0x0, symName: __ZNSt3__114__split_bufferIPNS_5tupleIJiiiEEENS_9allocatorIS3_EEE5frontB8ue170006Ev, symObjAddr: 0x1EA8, symBinAddr: 0x100002804, symSize: 0x18 }
  - { offsetInCU: 0x1A2B7, offset: 0x1A2B7, size: 0x8, addend: 0x0, symName: __ZNSt3__114__split_bufferIPNS_5tupleIJiiiEEENS_9allocatorIS3_EEE9pop_frontB8ue170006Ev, symObjAddr: 0x1EC0, symBinAddr: 0x10000281C, symSize: 0x2C }
  - { offsetInCU: 0x1A2DD, offset: 0x1A2DD, size: 0x8, addend: 0x0, symName: __ZNKSt3__15dequeINS_5tupleIJiiiEEENS_9allocatorIS2_EEE14__annotate_newB8ue170006Em, symObjAddr: 0x1EEC, symBinAddr: 0x100002848, symSize: 0xC0 }
  - { offsetInCU: 0x1A312, offset: 0x1A312, size: 0x8, addend: 0x0, symName: __ZNKSt3__114__split_bufferIPNS_5tupleIJiiiEEENS_9allocatorIS3_EEE5emptyB8ue170006Ev, symObjAddr: 0x1FAC, symBinAddr: 0x100002908, symSize: 0x28 }
  - { offsetInCU: 0x1A338, offset: 0x1A338, size: 0x8, addend: 0x0, symName: __ZNSt3__116__deque_iteratorINS_5tupleIJiiiEEEPS2_RS2_PS3_lLl341EEC1B8ue170006ES5_S3_, symObjAddr: 0x1FD4, symBinAddr: 0x100002930, symSize: 0x3C }
  - { offsetInCU: 0x1A380, offset: 0x1A380, size: 0x8, addend: 0x0, symName: __ZNSt3__116__deque_iteratorINS_5tupleIJiiiEEEPS2_RS2_PS3_lLl341EEC2B8ue170006ES5_S3_, symObjAddr: 0x2010, symBinAddr: 0x10000296C, symSize: 0x2C }
  - { offsetInCU: 0x1A3C8, offset: 0x1A3C8, size: 0x8, addend: 0x0, symName: __ZNKSt3__15dequeINS_5tupleIJiiiEEENS_9allocatorIS2_EEE4sizeB8ue170006Ev, symObjAddr: 0x203C, symBinAddr: 0x100002998, symSize: 0x28 }
  - { offsetInCU: 0x1A3EE, offset: 0x1A3EE, size: 0x8, addend: 0x0, symName: __ZNKSt3__15dequeINS_5tupleIJiiiEEENS_9allocatorIS2_EEE6__sizeB8ue170006Ev, symObjAddr: 0x2064, symBinAddr: 0x1000029C0, symSize: 0x28 }
  - { offsetInCU: 0x1A414, offset: 0x1A414, size: 0x8, addend: 0x0, symName: __ZNKSt3__117__compressed_pairImNS_9allocatorINS_5tupleIJiiiEEEEEE5firstB8ue170006Ev, symObjAddr: 0x208C, symBinAddr: 0x1000029E8, symSize: 0x24 }
  - { offsetInCU: 0x1A43A, offset: 0x1A43A, size: 0x8, addend: 0x0, symName: __ZNKSt3__122__compressed_pair_elemImLi0ELb0EE5__getB8ue170006Ev, symObjAddr: 0x20B0, symBinAddr: 0x100002A0C, symSize: 0x14 }
  - { offsetInCU: 0x1A460, offset: 0x1A460, size: 0x8, addend: 0x0, symName: __ZNSt3__19allocatorINS_5tupleIJiiiEEEE7destroyB8ue170006EPS2_, symObjAddr: 0x20F4, symBinAddr: 0x100002A50, symSize: 0x14 }
  - { offsetInCU: 0x1A494, offset: 0x1A494, size: 0x8, addend: 0x0, symName: __ZNSt3__117__compressed_pairImNS_9allocatorINS_5tupleIJiiiEEEEEE5firstB8ue170006Ev, symObjAddr: 0x2108, symBinAddr: 0x100002A64, symSize: 0x24 }
  - { offsetInCU: 0x1A4BA, offset: 0x1A4BA, size: 0x8, addend: 0x0, symName: __ZNSt3__122__compressed_pair_elemImLi0ELb0EE5__getB8ue170006Ev, symObjAddr: 0x212C, symBinAddr: 0x100002A88, symSize: 0x14 }
  - { offsetInCU: 0x1A4E0, offset: 0x1A4E0, size: 0x8, addend: 0x0, symName: __ZNSt3__114__split_bufferIPNS_5tupleIJiiiEEENS_9allocatorIS3_EEE19__destruct_at_beginB8ue170006EPS3_, symObjAddr: 0x2140, symBinAddr: 0x100002A9C, symSize: 0x2C }
  - { offsetInCU: 0x1A514, offset: 0x1A514, size: 0x8, addend: 0x0, symName: __ZNSt3__114__split_bufferIPNS_5tupleIJiiiEEENS_9allocatorIS3_EEE19__destruct_at_beginEPS3_NS_17integral_constantIbLb1EEE, symObjAddr: 0x216C, symBinAddr: 0x100002AC8, symSize: 0x20 }
  - { offsetInCU: 0x1A554, offset: 0x1A554, size: 0x8, addend: 0x0, symName: __ZNKSt3__15dequeINS_5tupleIJiiiEEENS_9allocatorIS2_EEE18__annotate_from_toB8ue170006EmmNS5_22__asan_annotation_typeENS5_23__asan_annotation_placeE, symObjAddr: 0x218C, symBinAddr: 0x100002AE8, symSize: 0x598 }
  - { offsetInCU: 0x1A710, offset: 0x1A710, size: 0x8, addend: 0x0, symName: __ZNKSt3__114__split_bufferIPNS_5tupleIJiiiEEENS_9allocatorIS3_EEE5beginB8ue170006Ev, symObjAddr: 0x2724, symBinAddr: 0x100003080, symSize: 0x18 }
  - { offsetInCU: 0x1A736, offset: 0x1A736, size: 0x8, addend: 0x0, symName: __ZNKSt3__15dequeINS_5tupleIJiiiEEENS_9allocatorIS2_EEE5emptyB8ue170006Ev, symObjAddr: 0x273C, symBinAddr: 0x100003098, symSize: 0x30 }
  - { offsetInCU: 0x1A75C, offset: 0x1A75C, size: 0x8, addend: 0x0, symName: __ZNKSt3__15dequeINS_5tupleIJiiiEEENS_9allocatorIS2_EEE44__annotate_double_ended_contiguous_containerB8ue170006EPKvS7_S7_S7_S7_S7_, symObjAddr: 0x2780, symBinAddr: 0x1000030DC, symSize: 0x28 }
  - { offsetInCU: 0x1A7C4, offset: 0x1A7C4, size: 0x8, addend: 0x0, symName: __ZNKSt3__15dequeINS_5tupleIJiiiEEENS_9allocatorIS2_EEE22__annotate_whole_blockB8ue170006EmNS5_22__asan_annotation_typeE, symObjAddr: 0x27A8, symBinAddr: 0x100003104, symSize: 0xAC }
  - { offsetInCU: 0x1A835, offset: 0x1A835, size: 0x8, addend: 0x0, symName: __ZNKSt3__15dequeINS_5tupleIJiiiEEENS_9allocatorIS2_EEE23__annotate_poison_blockB8ue170006EPKvS7_, symObjAddr: 0x2854, symBinAddr: 0x1000031B0, symSize: 0x44 }
  - { offsetInCU: 0x1A879, offset: 0x1A879, size: 0x8, addend: 0x0, symName: __ZNSt3__19allocatorINS_5tupleIJiiiEEEE10deallocateB8ue170006EPS2_m, symObjAddr: 0x2898, symBinAddr: 0x1000031F4, symSize: 0x44 }
  - { offsetInCU: 0x1A8BB, offset: 0x1A8BB, size: 0x8, addend: 0x0, symName: __ZNSt3__117__compressed_pairImNS_9allocatorINS_5tupleIJiiiEEEEEE6secondB8ue170006Ev, symObjAddr: 0x2958, symBinAddr: 0x1000032B4, symSize: 0x24 }
  - { offsetInCU: 0x1A8E1, offset: 0x1A8E1, size: 0x8, addend: 0x0, symName: __ZNSt3__122__compressed_pair_elemINS_9allocatorINS_5tupleIJiiiEEEEELi1ELb1EE5__getB8ue170006Ev, symObjAddr: 0x297C, symBinAddr: 0x1000032D8, symSize: 0x14 }
  - { offsetInCU: 0x1A907, offset: 0x1A907, size: 0x8, addend: 0x0, symName: __ZNSt3__114__split_bufferIPNS_5tupleIJiiiEEENS_9allocatorIS3_EEED2Ev, symObjAddr: 0x2990, symBinAddr: 0x1000032EC, symSize: 0x8C }
  - { offsetInCU: 0x1A933, offset: 0x1A933, size: 0x8, addend: 0x0, symName: __ZNSt3__114__split_bufferIPNS_5tupleIJiiiEEENS_9allocatorIS3_EEE5clearB8ue170006Ev, symObjAddr: 0x2A1C, symBinAddr: 0x100003378, symSize: 0x28 }
  - { offsetInCU: 0x1A959, offset: 0x1A959, size: 0x8, addend: 0x0, symName: __ZNSt3__116allocator_traitsINS_9allocatorIPNS_5tupleIJiiiEEEEEE10deallocateB8ue170006ERS5_PS4_m, symObjAddr: 0x2A44, symBinAddr: 0x1000033A0, symSize: 0x34 }
  - { offsetInCU: 0x1A99B, offset: 0x1A99B, size: 0x8, addend: 0x0, symName: __ZNSt3__114__split_bufferIPNS_5tupleIJiiiEEENS_9allocatorIS3_EEE7__allocB8ue170006Ev, symObjAddr: 0x2A78, symBinAddr: 0x1000033D4, symSize: 0x28 }
  - { offsetInCU: 0x1A9C1, offset: 0x1A9C1, size: 0x8, addend: 0x0, symName: __ZNKSt3__114__split_bufferIPNS_5tupleIJiiiEEENS_9allocatorIS3_EEE8capacityB8ue170006Ev, symObjAddr: 0x2AA0, symBinAddr: 0x1000033FC, symSize: 0x40 }
  - { offsetInCU: 0x1A9E7, offset: 0x1A9E7, size: 0x8, addend: 0x0, symName: __ZNSt3__114__split_bufferIPNS_5tupleIJiiiEEENS_9allocatorIS3_EEE17__destruct_at_endB8ue170006EPS3_, symObjAddr: 0x2AE0, symBinAddr: 0x10000343C, symSize: 0x2C }
  - { offsetInCU: 0x1AA1B, offset: 0x1AA1B, size: 0x8, addend: 0x0, symName: __ZNSt3__114__split_bufferIPNS_5tupleIJiiiEEENS_9allocatorIS3_EEE17__destruct_at_endB8ue170006EPS3_NS_17integral_constantIbLb0EEE, symObjAddr: 0x2B0C, symBinAddr: 0x100003468, symSize: 0x80 }
  - { offsetInCU: 0x1AA5B, offset: 0x1AA5B, size: 0x8, addend: 0x0, symName: __ZNSt3__116allocator_traitsINS_9allocatorIPNS_5tupleIJiiiEEEEEE7destroyB8ue170006IS4_vEEvRS5_PT_, symObjAddr: 0x2B8C, symBinAddr: 0x1000034E8, symSize: 0x2C }
  - { offsetInCU: 0x1AA98, offset: 0x1AA98, size: 0x8, addend: 0x0, symName: __ZNSt3__19allocatorIPNS_5tupleIJiiiEEEE7destroyB8ue170006EPS3_, symObjAddr: 0x2BCC, symBinAddr: 0x100003528, symSize: 0x14 }
  - { offsetInCU: 0x1AACC, offset: 0x1AACC, size: 0x8, addend: 0x0, symName: __ZNSt3__19allocatorIPNS_5tupleIJiiiEEEE10deallocateB8ue170006EPS3_m, symObjAddr: 0x2BE0, symBinAddr: 0x10000353C, symSize: 0x40 }
  - { offsetInCU: 0x1AB0E, offset: 0x1AB0E, size: 0x8, addend: 0x0, symName: __ZNSt3__117__compressed_pairIPPNS_5tupleIJiiiEEENS_9allocatorIS3_EEE6secondB8ue170006Ev, symObjAddr: 0x2C20, symBinAddr: 0x10000357C, symSize: 0x24 }
  - { offsetInCU: 0x1AB34, offset: 0x1AB34, size: 0x8, addend: 0x0, symName: __ZNSt3__122__compressed_pair_elemINS_9allocatorIPNS_5tupleIJiiiEEEEELi1ELb1EE5__getB8ue170006Ev, symObjAddr: 0x2C44, symBinAddr: 0x1000035A0, symSize: 0x14 }
  - { offsetInCU: 0x1AB5A, offset: 0x1AB5A, size: 0x8, addend: 0x0, symName: __ZNKSt3__114__split_bufferIPNS_5tupleIJiiiEEENS_9allocatorIS3_EEE9__end_capB8ue170006Ev, symObjAddr: 0x2C58, symBinAddr: 0x1000035B4, symSize: 0x28 }
  - { offsetInCU: 0x1AB80, offset: 0x1AB80, size: 0x8, addend: 0x0, symName: __ZNKSt3__117__compressed_pairIPPNS_5tupleIJiiiEEENS_9allocatorIS3_EEE5firstB8ue170006Ev, symObjAddr: 0x2C80, symBinAddr: 0x1000035DC, symSize: 0x24 }
  - { offsetInCU: 0x1ABA6, offset: 0x1ABA6, size: 0x8, addend: 0x0, symName: __ZNKSt3__122__compressed_pair_elemIPPNS_5tupleIJiiiEEELi0ELb0EE5__getB8ue170006Ev, symObjAddr: 0x2CA4, symBinAddr: 0x100003600, symSize: 0x14 }
  - { offsetInCU: 0x1ABCC, offset: 0x1ABCC, size: 0x8, addend: 0x0, symName: __ZNSt3__16vectorINS_4pairIiiEENS_9allocatorIS2_EEEC2B8ue170006Ev, symObjAddr: 0x2CB8, symBinAddr: 0x100003614, symSize: 0x4C }
  - { offsetInCU: 0x1AC00, offset: 0x1AC00, size: 0x8, addend: 0x0, symName: __ZNSt3__117__compressed_pairIPNS_4pairIiiEENS_9allocatorIS2_EEEC1B8ue170006IDnNS_18__default_init_tagEEEOT_OT0_, symObjAddr: 0x2D04, symBinAddr: 0x100003660, symSize: 0x3C }
  - { offsetInCU: 0x1AC58, offset: 0x1AC58, size: 0x8, addend: 0x0, symName: __ZNSt3__117__compressed_pairIPNS_4pairIiiEENS_9allocatorIS2_EEEC2B8ue170006IDnNS_18__default_init_tagEEEOT_OT0_, symObjAddr: 0x2D40, symBinAddr: 0x10000369C, symSize: 0x40 }
  - { offsetInCU: 0x1ACB0, offset: 0x1ACB0, size: 0x8, addend: 0x0, symName: __ZNSt3__122__compressed_pair_elemIPNS_4pairIiiEELi0ELb0EEC2B8ue170006IDnvEEOT_, symObjAddr: 0x2D80, symBinAddr: 0x1000036DC, symSize: 0x1C }
  - { offsetInCU: 0x1ACF2, offset: 0x1ACF2, size: 0x8, addend: 0x0, symName: __ZNSt3__122__compressed_pair_elemINS_9allocatorINS_4pairIiiEEEELi1ELb1EEC2B8ue170006ENS_18__default_init_tagE, symObjAddr: 0x2D9C, symBinAddr: 0x1000036F8, symSize: 0x2C }
  - { offsetInCU: 0x1AD26, offset: 0x1AD26, size: 0x8, addend: 0x0, symName: __ZNSt3__19allocatorINS_4pairIiiEEEC2B8ue170006Ev, symObjAddr: 0x2DC8, symBinAddr: 0x100003724, symSize: 0x2C }
  - { offsetInCU: 0x1AD50, offset: 0x1AD50, size: 0x8, addend: 0x0, symName: __ZNSt3__116__non_trivial_ifILb1ENS_9allocatorINS_4pairIiiEEEEEC2B8ue170006Ev, symObjAddr: 0x2DF4, symBinAddr: 0x100003750, symSize: 0x14 }
  - { offsetInCU: 0x1AD7A, offset: 0x1AD7A, size: 0x8, addend: 0x0, symName: __ZNSt3__16vectorINS_4pairIiiEENS_9allocatorIS2_EEED2B8ue170006Ev, symObjAddr: 0x2E08, symBinAddr: 0x100003764, symSize: 0x44 }
  - { offsetInCU: 0x1ADA4, offset: 0x1ADA4, size: 0x8, addend: 0x0, symName: __ZNSt3__16vectorINS_4pairIiiEENS_9allocatorIS2_EEE16__destroy_vectorC1B8ue170006ERS5_, symObjAddr: 0x2E4C, symBinAddr: 0x1000037A8, symSize: 0x34 }
  - { offsetInCU: 0x1ADDD, offset: 0x1ADDD, size: 0x8, addend: 0x0, symName: __ZNSt3__16vectorINS_4pairIiiEENS_9allocatorIS2_EEE16__destroy_vectorclB8ue170006Ev, symObjAddr: 0x2E80, symBinAddr: 0x1000037DC, symSize: 0x90 }
  - { offsetInCU: 0x1AE03, offset: 0x1AE03, size: 0x8, addend: 0x0, symName: __ZNSt3__16vectorINS_4pairIiiEENS_9allocatorIS2_EEE16__destroy_vectorC2B8ue170006ERS5_, symObjAddr: 0x2F10, symBinAddr: 0x10000386C, symSize: 0x20 }
  - { offsetInCU: 0x1AE3C, offset: 0x1AE3C, size: 0x8, addend: 0x0, symName: __ZNSt3__16vectorINS_4pairIiiEENS_9allocatorIS2_EEE7__clearB8ue170006Ev, symObjAddr: 0x2F30, symBinAddr: 0x10000388C, symSize: 0x28 }
  - { offsetInCU: 0x1AE62, offset: 0x1AE62, size: 0x8, addend: 0x0, symName: __ZNKSt3__16vectorINS_4pairIiiEENS_9allocatorIS2_EEE17__annotate_deleteB8ue170006Ev, symObjAddr: 0x2F58, symBinAddr: 0x1000038B4, symSize: 0xB8 }
  - { offsetInCU: 0x1AE88, offset: 0x1AE88, size: 0x8, addend: 0x0, symName: __ZNSt3__116allocator_traitsINS_9allocatorINS_4pairIiiEEEEE10deallocateB8ue170006ERS4_PS3_m, symObjAddr: 0x3010, symBinAddr: 0x10000396C, symSize: 0x34 }
  - { offsetInCU: 0x1AECA, offset: 0x1AECA, size: 0x8, addend: 0x0, symName: __ZNSt3__16vectorINS_4pairIiiEENS_9allocatorIS2_EEE7__allocB8ue170006Ev, symObjAddr: 0x3044, symBinAddr: 0x1000039A0, symSize: 0x28 }
  - { offsetInCU: 0x1AEF0, offset: 0x1AEF0, size: 0x8, addend: 0x0, symName: __ZNKSt3__16vectorINS_4pairIiiEENS_9allocatorIS2_EEE8capacityB8ue170006Ev, symObjAddr: 0x306C, symBinAddr: 0x1000039C8, symSize: 0x40 }
  - { offsetInCU: 0x1AF16, offset: 0x1AF16, size: 0x8, addend: 0x0, symName: __ZNSt3__16vectorINS_4pairIiiEENS_9allocatorIS2_EEE22__base_destruct_at_endB8ue170006EPS2_, symObjAddr: 0x30AC, symBinAddr: 0x100003A08, symSize: 0x8C }
  - { offsetInCU: 0x1AF5A, offset: 0x1AF5A, size: 0x8, addend: 0x0, symName: __ZNSt3__116allocator_traitsINS_9allocatorINS_4pairIiiEEEEE7destroyB8ue170006IS3_vEEvRS4_PT_, symObjAddr: 0x3138, symBinAddr: 0x100003A94, symSize: 0x2C }
  - { offsetInCU: 0x1AF97, offset: 0x1AF97, size: 0x8, addend: 0x0, symName: __ZNSt3__19allocatorINS_4pairIiiEEE7destroyB8ue170006EPS2_, symObjAddr: 0x3178, symBinAddr: 0x100003AD4, symSize: 0x14 }
  - { offsetInCU: 0x1AFCB, offset: 0x1AFCB, size: 0x8, addend: 0x0, symName: __ZNKSt3__16vectorINS_4pairIiiEENS_9allocatorIS2_EEE31__annotate_contiguous_containerB8ue170006EPKvS7_S7_S7_, symObjAddr: 0x318C, symBinAddr: 0x100003AE8, symSize: 0x20 }
  - { offsetInCU: 0x1B01D, offset: 0x1B01D, size: 0x8, addend: 0x0, symName: __ZNKSt3__16vectorINS_4pairIiiEENS_9allocatorIS2_EEE4dataB8ue170006Ev, symObjAddr: 0x31AC, symBinAddr: 0x100003B08, symSize: 0x28 }
  - { offsetInCU: 0x1B043, offset: 0x1B043, size: 0x8, addend: 0x0, symName: __ZNKSt3__16vectorINS_4pairIiiEENS_9allocatorIS2_EEE4sizeB8ue170006Ev, symObjAddr: 0x31D4, symBinAddr: 0x100003B30, symSize: 0x28 }
  - { offsetInCU: 0x1B069, offset: 0x1B069, size: 0x8, addend: 0x0, symName: __ZNSt3__19allocatorINS_4pairIiiEEE10deallocateB8ue170006EPS2_m, symObjAddr: 0x31FC, symBinAddr: 0x100003B58, symSize: 0x40 }
  - { offsetInCU: 0x1B0AB, offset: 0x1B0AB, size: 0x8, addend: 0x0, symName: __ZNSt3__117__compressed_pairIPNS_4pairIiiEENS_9allocatorIS2_EEE6secondB8ue170006Ev, symObjAddr: 0x323C, symBinAddr: 0x100003B98, symSize: 0x24 }
  - { offsetInCU: 0x1B0D1, offset: 0x1B0D1, size: 0x8, addend: 0x0, symName: __ZNSt3__122__compressed_pair_elemINS_9allocatorINS_4pairIiiEEEELi1ELb1EE5__getB8ue170006Ev, symObjAddr: 0x3260, symBinAddr: 0x100003BBC, symSize: 0x14 }
  - { offsetInCU: 0x1B0F7, offset: 0x1B0F7, size: 0x8, addend: 0x0, symName: __ZNKSt3__16vectorINS_4pairIiiEENS_9allocatorIS2_EEE9__end_capB8ue170006Ev, symObjAddr: 0x3274, symBinAddr: 0x100003BD0, symSize: 0x28 }
  - { offsetInCU: 0x1B11D, offset: 0x1B11D, size: 0x8, addend: 0x0, symName: __ZNKSt3__117__compressed_pairIPNS_4pairIiiEENS_9allocatorIS2_EEE5firstB8ue170006Ev, symObjAddr: 0x329C, symBinAddr: 0x100003BF8, symSize: 0x24 }
  - { offsetInCU: 0x1B143, offset: 0x1B143, size: 0x8, addend: 0x0, symName: __ZNKSt3__122__compressed_pair_elemIPNS_4pairIiiEELi0ELb0EE5__getB8ue170006Ev, symObjAddr: 0x32C0, symBinAddr: 0x100003C1C, symSize: 0x14 }
  - { offsetInCU: 0x1B169, offset: 0x1B169, size: 0x8, addend: 0x0, symName: __ZNSt3__16vectorINS_4pairIiiEENS_9allocatorIS2_EEE9__end_capB8ue170006Ev, symObjAddr: 0x32D4, symBinAddr: 0x100003C30, symSize: 0x28 }
  - { offsetInCU: 0x1B18F, offset: 0x1B18F, size: 0x8, addend: 0x0, symName: __ZNSt3__16vectorINS_4pairIiiEENS_9allocatorIS2_EEE22__construct_one_at_endB8ue170006IJS2_EEEvDpOT_, symObjAddr: 0x32FC, symBinAddr: 0x100003C58, symSize: 0x90 }
  - { offsetInCU: 0x1B1DE, offset: 0x1B1DE, size: 0x8, addend: 0x0, symName: __ZNSt3__16vectorINS_4pairIiiEENS_9allocatorIS2_EEE21__push_back_slow_pathIS2_EEvOT_, symObjAddr: 0x338C, symBinAddr: 0x100003CE8, symSize: 0xD8 }
  - { offsetInCU: 0x1B23C, offset: 0x1B23C, size: 0x8, addend: 0x0, symName: __ZNSt3__117__compressed_pairIPNS_4pairIiiEENS_9allocatorIS2_EEE5firstB8ue170006Ev, symObjAddr: 0x3464, symBinAddr: 0x100003DC0, symSize: 0x24 }
  - { offsetInCU: 0x1B262, offset: 0x1B262, size: 0x8, addend: 0x0, symName: __ZNSt3__122__compressed_pair_elemIPNS_4pairIiiEELi0ELb0EE5__getB8ue170006Ev, symObjAddr: 0x3488, symBinAddr: 0x100003DE4, symSize: 0x14 }
  - { offsetInCU: 0x1B2A1, offset: 0x1B2A1, size: 0x8, addend: 0x0, symName: __ZNSt3__16vectorINS_4pairIiiEENS_9allocatorIS2_EEE21_ConstructTransactionC1B8ue170006ERS5_m, symObjAddr: 0x349C, symBinAddr: 0x100003DF8, symSize: 0x3C }
  - { offsetInCU: 0x1B2E9, offset: 0x1B2E9, size: 0x8, addend: 0x0, symName: __ZNSt3__116allocator_traitsINS_9allocatorINS_4pairIiiEEEEE9constructB8ue170006IS3_JS3_EvEEvRS4_PT_DpOT0_, symObjAddr: 0x34D8, symBinAddr: 0x100003E34, symSize: 0x34 }
  - { offsetInCU: 0x1B340, offset: 0x1B340, size: 0x8, addend: 0x0, symName: __ZNSt3__16vectorINS_4pairIiiEENS_9allocatorIS2_EEE21_ConstructTransactionD1B8ue170006Ev, symObjAddr: 0x350C, symBinAddr: 0x100003E68, symSize: 0x2C }
  - { offsetInCU: 0x1B36A, offset: 0x1B36A, size: 0x8, addend: 0x0, symName: __ZNSt3__16vectorINS_4pairIiiEENS_9allocatorIS2_EEE21_ConstructTransactionC2B8ue170006ERS5_m, symObjAddr: 0x3538, symBinAddr: 0x100003E94, symSize: 0x44 }
  - { offsetInCU: 0x1B3B2, offset: 0x1B3B2, size: 0x8, addend: 0x0, symName: __ZNSt3__19allocatorINS_4pairIiiEEE9constructB8ue170006IS2_JS2_EEEvPT_DpOT0_, symObjAddr: 0x357C, symBinAddr: 0x100003ED8, symSize: 0x28 }
  - { offsetInCU: 0x1B408, offset: 0x1B408, size: 0x8, addend: 0x0, symName: __ZNSt3__16vectorINS_4pairIiiEENS_9allocatorIS2_EEE21_ConstructTransactionD2B8ue170006Ev, symObjAddr: 0x35A4, symBinAddr: 0x100003F00, symSize: 0x20 }
  - { offsetInCU: 0x1B432, offset: 0x1B432, size: 0x8, addend: 0x0, symName: __ZNKSt3__16vectorINS_4pairIiiEENS_9allocatorIS2_EEE11__recommendB8ue170006Em, symObjAddr: 0x35C4, symBinAddr: 0x100003F20, symSize: 0xB4 }
  - { offsetInCU: 0x1B487, offset: 0x1B487, size: 0x8, addend: 0x0, symName: __ZNSt3__114__split_bufferINS_4pairIiiEERNS_9allocatorIS2_EEEC1EmmS5_, symObjAddr: 0x3678, symBinAddr: 0x100003FD4, symSize: 0x44 }
  - { offsetInCU: 0x1B4DD, offset: 0x1B4DD, size: 0x8, addend: 0x0, symName: __ZNSt3__114__split_bufferINS_4pairIiiEERNS_9allocatorIS2_EEED1Ev, symObjAddr: 0x37CC, symBinAddr: 0x100004128, symSize: 0x2C }
  - { offsetInCU: 0x1B509, offset: 0x1B509, size: 0x8, addend: 0x0, symName: __ZNKSt3__16vectorINS_4pairIiiEENS_9allocatorIS2_EEE8max_sizeEv, symObjAddr: 0x37F8, symBinAddr: 0x100004154, symSize: 0x60 }
  - { offsetInCU: 0x1B531, offset: 0x1B531, size: 0x8, addend: 0x0, symName: __ZNKSt3__16vectorINS_4pairIiiEENS_9allocatorIS2_EEE20__throw_length_errorB8ue170006Ev, symObjAddr: 0x3858, symBinAddr: 0x1000041B4, symSize: 0x1C }
  - { offsetInCU: 0x1B561, offset: 0x1B561, size: 0x8, addend: 0x0, symName: __ZNSt3__116allocator_traitsINS_9allocatorINS_4pairIiiEEEEE8max_sizeB8ue170006IS4_vEEmRKS4_, symObjAddr: 0x38CC, symBinAddr: 0x100004228, symSize: 0x24 }
  - { offsetInCU: 0x1B58F, offset: 0x1B58F, size: 0x8, addend: 0x0, symName: __ZNKSt3__16vectorINS_4pairIiiEENS_9allocatorIS2_EEE7__allocB8ue170006Ev, symObjAddr: 0x38F0, symBinAddr: 0x10000424C, symSize: 0x28 }
  - { offsetInCU: 0x1B5B5, offset: 0x1B5B5, size: 0x8, addend: 0x0, symName: __ZNSt3__114numeric_limitsIlE3maxB8ue170006Ev, symObjAddr: 0x3918, symBinAddr: 0x100004274, symSize: 0x14 }
  - { offsetInCU: 0x1B5C9, offset: 0x1B5C9, size: 0x8, addend: 0x0, symName: __ZNKSt3__16__lessIvvEclB8ue170006ImmEEbRKT_RKT0_, symObjAddr: 0x3980, symBinAddr: 0x1000042DC, symSize: 0x34 }
  - { offsetInCU: 0x1B61D, offset: 0x1B61D, size: 0x8, addend: 0x0, symName: __ZNKSt3__19allocatorINS_4pairIiiEEE8max_sizeB8ue170006Ev, symObjAddr: 0x39B4, symBinAddr: 0x100004310, symSize: 0x14 }
  - { offsetInCU: 0x1B643, offset: 0x1B643, size: 0x8, addend: 0x0, symName: __ZNKSt3__117__compressed_pairIPNS_4pairIiiEENS_9allocatorIS2_EEE6secondB8ue170006Ev, symObjAddr: 0x39C8, symBinAddr: 0x100004324, symSize: 0x24 }
  - { offsetInCU: 0x1B669, offset: 0x1B669, size: 0x8, addend: 0x0, symName: __ZNKSt3__122__compressed_pair_elemINS_9allocatorINS_4pairIiiEEEELi1ELb1EE5__getB8ue170006Ev, symObjAddr: 0x39EC, symBinAddr: 0x100004348, symSize: 0x14 }
  - { offsetInCU: 0x1B68F, offset: 0x1B68F, size: 0x8, addend: 0x0, symName: __ZNSt3__123__libcpp_numeric_limitsIlLb1EE3maxB8ue170006Ev, symObjAddr: 0x3A00, symBinAddr: 0x10000435C, symSize: 0x8 }
  - { offsetInCU: 0x1B6A3, offset: 0x1B6A3, size: 0x8, addend: 0x0, symName: __ZNSt12length_errorC1B8ue170006EPKc, symObjAddr: 0x3A6C, symBinAddr: 0x1000043C8, symSize: 0x34 }
  - { offsetInCU: 0x1B6DB, offset: 0x1B6DB, size: 0x8, addend: 0x0, symName: __ZNSt12length_errorC2B8ue170006EPKc, symObjAddr: 0x3AA0, symBinAddr: 0x1000043FC, symSize: 0x4C }
  - { offsetInCU: 0x1B713, offset: 0x1B713, size: 0x8, addend: 0x0, symName: __ZNSt3__114__split_bufferINS_4pairIiiEERNS_9allocatorIS2_EEEC2EmmS5_, symObjAddr: 0x3B40, symBinAddr: 0x10000449C, symSize: 0xD4 }
  - { offsetInCU: 0x1B786, offset: 0x1B786, size: 0x8, addend: 0x0, symName: __ZNSt3__117__compressed_pairIPNS_4pairIiiEERNS_9allocatorIS2_EEEC1B8ue170006IDnS6_EEOT_OT0_, symObjAddr: 0x3C14, symBinAddr: 0x100004570, symSize: 0x3C }
  - { offsetInCU: 0x1B7DE, offset: 0x1B7DE, size: 0x8, addend: 0x0, symName: __ZNSt3__114__split_bufferINS_4pairIiiEERNS_9allocatorIS2_EEE7__allocB8ue170006Ev, symObjAddr: 0x3C90, symBinAddr: 0x1000045EC, symSize: 0x28 }
  - { offsetInCU: 0x1B804, offset: 0x1B804, size: 0x8, addend: 0x0, symName: __ZNSt3__114__split_bufferINS_4pairIiiEERNS_9allocatorIS2_EEE9__end_capB8ue170006Ev, symObjAddr: 0x3CB8, symBinAddr: 0x100004614, symSize: 0x28 }
  - { offsetInCU: 0x1B82A, offset: 0x1B82A, size: 0x8, addend: 0x0, symName: __ZNSt3__117__compressed_pairIPNS_4pairIiiEERNS_9allocatorIS2_EEEC2B8ue170006IDnS6_EEOT_OT0_, symObjAddr: 0x3CE0, symBinAddr: 0x10000463C, symSize: 0x48 }
  - { offsetInCU: 0x1B882, offset: 0x1B882, size: 0x8, addend: 0x0, symName: __ZNSt3__122__compressed_pair_elemIRNS_9allocatorINS_4pairIiiEEEELi1ELb0EEC2B8ue170006IS5_vEEOT_, symObjAddr: 0x3D28, symBinAddr: 0x100004684, symSize: 0x20 }
  - { offsetInCU: 0x1B8C4, offset: 0x1B8C4, size: 0x8, addend: 0x0, symName: __ZNSt3__19allocatorINS_4pairIiiEEE8allocateB8ue170006Em, symObjAddr: 0x3D48, symBinAddr: 0x1000046A4, symSize: 0x58 }
  - { offsetInCU: 0x1B8F8, offset: 0x1B8F8, size: 0x8, addend: 0x0, symName: __ZNSt3__117__compressed_pairIPNS_4pairIiiEERNS_9allocatorIS2_EEE6secondB8ue170006Ev, symObjAddr: 0x3E20, symBinAddr: 0x10000477C, symSize: 0x28 }
  - { offsetInCU: 0x1B91E, offset: 0x1B91E, size: 0x8, addend: 0x0, symName: __ZNSt3__122__compressed_pair_elemIRNS_9allocatorINS_4pairIiiEEEELi1ELb0EE5__getB8ue170006Ev, symObjAddr: 0x3E48, symBinAddr: 0x1000047A4, symSize: 0x18 }
  - { offsetInCU: 0x1B944, offset: 0x1B944, size: 0x8, addend: 0x0, symName: __ZNSt3__117__compressed_pairIPNS_4pairIiiEERNS_9allocatorIS2_EEE5firstB8ue170006Ev, symObjAddr: 0x3E60, symBinAddr: 0x1000047BC, symSize: 0x24 }
  - { offsetInCU: 0x1B96A, offset: 0x1B96A, size: 0x8, addend: 0x0, symName: __ZNSt3__116reverse_iteratorIPNS_4pairIiiEEEC1B8ue170006ES3_, symObjAddr: 0x3FB0, symBinAddr: 0x10000490C, symSize: 0x34 }
  - { offsetInCU: 0x1B9A2, offset: 0x1B9A2, size: 0x8, addend: 0x0, symName: __ZNKSt3__116reverse_iteratorIPNS_4pairIiiEEE4baseB8ue170006Ev, symObjAddr: 0x3FE4, symBinAddr: 0x100004940, symSize: 0x18 }
  - { offsetInCU: 0x1B9C8, offset: 0x1B9C8, size: 0x8, addend: 0x0, symName: __ZNKSt3__16vectorINS_4pairIiiEENS_9allocatorIS2_EEE14__annotate_newB8ue170006Em, symObjAddr: 0x4038, symBinAddr: 0x100004994, symSize: 0xAC }
  - { offsetInCU: 0x1B9FD, offset: 0x1B9FD, size: 0x8, addend: 0x0, symName: __ZNSt3__129_AllocatorDestroyRangeReverseINS_9allocatorINS_4pairIiiEEEENS_16reverse_iteratorIPS3_EEEC1B8ue170006ERS4_RS7_SA_, symObjAddr: 0x4130, symBinAddr: 0x100004A8C, symSize: 0x44 }
  - { offsetInCU: 0x1BA54, offset: 0x1BA54, size: 0x8, addend: 0x0, symName: __ZNKSt3__116reverse_iteratorIPNS_4pairIiiEEEdeB8ue170006Ev, symObjAddr: 0x41E0, symBinAddr: 0x100004B3C, symSize: 0x28 }
  - { offsetInCU: 0x1BA88, offset: 0x1BA88, size: 0x8, addend: 0x0, symName: __ZNSt3__116reverse_iteratorIPNS_4pairIiiEEEppB8ue170006Ev, symObjAddr: 0x4208, symBinAddr: 0x100004B64, symSize: 0x20 }
  - { offsetInCU: 0x1BAAE, offset: 0x1BAAE, size: 0x8, addend: 0x0, symName: __ZNSt3__128__exception_guard_exceptionsINS_29_AllocatorDestroyRangeReverseINS_9allocatorINS_4pairIiiEEEENS_16reverse_iteratorIPS4_EEEEE10__completeB8ue170006Ev, symObjAddr: 0x4228, symBinAddr: 0x100004B84, symSize: 0x1C }
  - { offsetInCU: 0x1BAD4, offset: 0x1BAD4, size: 0x8, addend: 0x0, symName: __ZNSt3__128__exception_guard_exceptionsINS_29_AllocatorDestroyRangeReverseINS_9allocatorINS_4pairIiiEEEENS_16reverse_iteratorIPS4_EEEEED1B8ue170006Ev, symObjAddr: 0x4244, symBinAddr: 0x100004BA0, symSize: 0x2C }
  - { offsetInCU: 0x1BAFE, offset: 0x1BAFE, size: 0x8, addend: 0x0, symName: __ZNSt3__128__exception_guard_exceptionsINS_29_AllocatorDestroyRangeReverseINS_9allocatorINS_4pairIiiEEEENS_16reverse_iteratorIPS4_EEEEEC1B8ue170006ES9_, symObjAddr: 0x4270, symBinAddr: 0x100004BCC, symSize: 0x34 }
  - { offsetInCU: 0x1BB37, offset: 0x1BB37, size: 0x8, addend: 0x0, symName: __ZNSt3__128__exception_guard_exceptionsINS_29_AllocatorDestroyRangeReverseINS_9allocatorINS_4pairIiiEEEENS_16reverse_iteratorIPS4_EEEEEC2B8ue170006ES9_, symObjAddr: 0x42A4, symBinAddr: 0x100004C00, symSize: 0x30 }
  - { offsetInCU: 0x1BB70, offset: 0x1BB70, size: 0x8, addend: 0x0, symName: __ZNSt3__129_AllocatorDestroyRangeReverseINS_9allocatorINS_4pairIiiEEEENS_16reverse_iteratorIPS3_EEEC2B8ue170006ERS4_RS7_SA_, symObjAddr: 0x42D4, symBinAddr: 0x100004C30, symSize: 0x38 }
  - { offsetInCU: 0x1BBCC, offset: 0x1BBCC, size: 0x8, addend: 0x0, symName: __ZNSt3__119__to_address_helperINS_16reverse_iteratorIPNS_4pairIiiEEEEvE6__callB8ue170006ERKS5_, symObjAddr: 0x430C, symBinAddr: 0x100004C68, symSize: 0x38 }
  - { offsetInCU: 0x1BBEF, offset: 0x1BBEF, size: 0x8, addend: 0x0, symName: __ZNKSt3__116reverse_iteratorIPNS_4pairIiiEEEptB8ue170006Ev, symObjAddr: 0x4344, symBinAddr: 0x100004CA0, symSize: 0x24 }
  - { offsetInCU: 0x1BC15, offset: 0x1BC15, size: 0x8, addend: 0x0, symName: __ZNSt3__128__exception_guard_exceptionsINS_29_AllocatorDestroyRangeReverseINS_9allocatorINS_4pairIiiEEEENS_16reverse_iteratorIPS4_EEEEED2B8ue170006Ev, symObjAddr: 0x4368, symBinAddr: 0x100004CC4, symSize: 0x50 }
  - { offsetInCU: 0x1BC3F, offset: 0x1BC3F, size: 0x8, addend: 0x0, symName: __ZNKSt3__129_AllocatorDestroyRangeReverseINS_9allocatorINS_4pairIiiEEEENS_16reverse_iteratorIPS3_EEEclB8ue170006Ev, symObjAddr: 0x43B8, symBinAddr: 0x100004D14, symSize: 0xB4 }
  - { offsetInCU: 0x1BC66, offset: 0x1BC66, size: 0x8, addend: 0x0, symName: __ZNSt3__116reverse_iteratorINS0_IPNS_4pairIiiEEEEEC1B8ue170006ES4_, symObjAddr: 0x44DC, symBinAddr: 0x100004E38, symSize: 0x3C }
  - { offsetInCU: 0x1BC9E, offset: 0x1BC9E, size: 0x8, addend: 0x0, symName: __ZNSt3__116reverse_iteratorINS0_IPNS_4pairIiiEEEEEppB8ue170006Ev, symObjAddr: 0x459C, symBinAddr: 0x100004EF8, symSize: 0x30 }
  - { offsetInCU: 0x1BCC4, offset: 0x1BCC4, size: 0x8, addend: 0x0, symName: __ZNKSt3__116reverse_iteratorINS0_IPNS_4pairIiiEEEEE4baseB8ue170006Ev, symObjAddr: 0x45CC, symBinAddr: 0x100004F28, symSize: 0x24 }
  - { offsetInCU: 0x1BCEF, offset: 0x1BCEF, size: 0x8, addend: 0x0, symName: __ZNSt3__119__to_address_helperINS_16reverse_iteratorINS1_IPNS_4pairIiiEEEEEEvE6__callB8ue170006ERKS6_, symObjAddr: 0x45F0, symBinAddr: 0x100004F4C, symSize: 0x38 }
  - { offsetInCU: 0x1BD12, offset: 0x1BD12, size: 0x8, addend: 0x0, symName: __ZNKSt3__116reverse_iteratorINS0_IPNS_4pairIiiEEEEEptB8ue170006Ev, symObjAddr: 0x4628, symBinAddr: 0x100004F84, symSize: 0x24 }
  - { offsetInCU: 0x1BD38, offset: 0x1BD38, size: 0x8, addend: 0x0, symName: __ZNKSt3__116reverse_iteratorINS0_IPNS_4pairIiiEEEEEdeB8ue170006Ev, symObjAddr: 0x464C, symBinAddr: 0x100004FA8, symSize: 0x34 }
  - { offsetInCU: 0x1BD6C, offset: 0x1BD6C, size: 0x8, addend: 0x0, symName: __ZNSt3__116reverse_iteratorIPNS_4pairIiiEEEmmB8ue170006Ev, symObjAddr: 0x4680, symBinAddr: 0x100004FDC, symSize: 0x20 }
  - { offsetInCU: 0x1BD92, offset: 0x1BD92, size: 0x8, addend: 0x0, symName: __ZNSt3__116reverse_iteratorINS0_IPNS_4pairIiiEEEEEC2B8ue170006ES4_, symObjAddr: 0x46A0, symBinAddr: 0x100004FFC, symSize: 0x2C }
  - { offsetInCU: 0x1BDCA, offset: 0x1BDCA, size: 0x8, addend: 0x0, symName: __ZNSt3__116reverse_iteratorIPNS_4pairIiiEEEC2B8ue170006ES3_, symObjAddr: 0x46CC, symBinAddr: 0x100005028, symSize: 0x28 }
  - { offsetInCU: 0x1BE02, offset: 0x1BE02, size: 0x8, addend: 0x0, symName: __ZNSt3__114__split_bufferINS_4pairIiiEERNS_9allocatorIS2_EEED2Ev, symObjAddr: 0x46F4, symBinAddr: 0x100005050, symSize: 0x8C }
  - { offsetInCU: 0x1BE2E, offset: 0x1BE2E, size: 0x8, addend: 0x0, symName: __ZNSt3__114__split_bufferINS_4pairIiiEERNS_9allocatorIS2_EEE5clearB8ue170006Ev, symObjAddr: 0x4780, symBinAddr: 0x1000050DC, symSize: 0x28 }
  - { offsetInCU: 0x1BE54, offset: 0x1BE54, size: 0x8, addend: 0x0, symName: __ZNKSt3__114__split_bufferINS_4pairIiiEERNS_9allocatorIS2_EEE8capacityB8ue170006Ev, symObjAddr: 0x47A8, symBinAddr: 0x100005104, symSize: 0x40 }
  - { offsetInCU: 0x1BE7A, offset: 0x1BE7A, size: 0x8, addend: 0x0, symName: __ZNSt3__114__split_bufferINS_4pairIiiEERNS_9allocatorIS2_EEE17__destruct_at_endB8ue170006EPS2_, symObjAddr: 0x47E8, symBinAddr: 0x100005144, symSize: 0x2C }
  - { offsetInCU: 0x1BEAE, offset: 0x1BEAE, size: 0x8, addend: 0x0, symName: __ZNSt3__114__split_bufferINS_4pairIiiEERNS_9allocatorIS2_EEE17__destruct_at_endB8ue170006EPS2_NS_17integral_constantIbLb0EEE, symObjAddr: 0x4814, symBinAddr: 0x100005170, symSize: 0x80 }
  - { offsetInCU: 0x1BEEE, offset: 0x1BEEE, size: 0x8, addend: 0x0, symName: __ZNKSt3__114__split_bufferINS_4pairIiiEERNS_9allocatorIS2_EEE9__end_capB8ue170006Ev, symObjAddr: 0x4894, symBinAddr: 0x1000051F0, symSize: 0x28 }
  - { offsetInCU: 0x1BF14, offset: 0x1BF14, size: 0x8, addend: 0x0, symName: __ZNKSt3__117__compressed_pairIPNS_4pairIiiEERNS_9allocatorIS2_EEE5firstB8ue170006Ev, symObjAddr: 0x48BC, symBinAddr: 0x100005218, symSize: 0x24 }
  - { offsetInCU: 0x1BF3A, offset: 0x1BF3A, size: 0x8, addend: 0x0, symName: __ZNSt3__13mapIiiNS_4lessIiEENS_9allocatorINS_4pairIKiiEEEEEC2B8ue170006Ev, symObjAddr: 0x48E0, symBinAddr: 0x10000523C, symSize: 0x40 }
  - { offsetInCU: 0x1BF64, offset: 0x1BF64, size: 0x8, addend: 0x0, symName: __ZNSt3__119__map_value_compareIiNS_12__value_typeIiiEENS_4lessIiEELb1EEC1B8ue170006ES4_, symObjAddr: 0x4920, symBinAddr: 0x10000527C, symSize: 0x2C }
  - { offsetInCU: 0x1BF9D, offset: 0x1BF9D, size: 0x8, addend: 0x0, symName: __ZNSt3__16__treeINS_12__value_typeIiiEENS_19__map_value_compareIiS2_NS_4lessIiEELb1EEENS_9allocatorIS2_EEEC1ERKS6_, symObjAddr: 0x494C, symBinAddr: 0x1000052A8, symSize: 0x34 }
  - { offsetInCU: 0x1BFD8, offset: 0x1BFD8, size: 0x8, addend: 0x0, symName: __ZNSt3__119__map_value_compareIiNS_12__value_typeIiiEENS_4lessIiEELb1EEC2B8ue170006ES4_, symObjAddr: 0x4980, symBinAddr: 0x1000052DC, symSize: 0x14 }
  - { offsetInCU: 0x1C011, offset: 0x1C011, size: 0x8, addend: 0x0, symName: __ZNSt3__16__treeINS_12__value_typeIiiEENS_19__map_value_compareIiS2_NS_4lessIiEELb1EEENS_9allocatorIS2_EEEC2ERKS6_, symObjAddr: 0x4994, symBinAddr: 0x1000052F0, symSize: 0x7C }
  - { offsetInCU: 0x1C04C, offset: 0x1C04C, size: 0x8, addend: 0x0, symName: __ZNSt3__117__compressed_pairINS_15__tree_end_nodeIPNS_16__tree_node_baseIPvEEEENS_9allocatorINS_11__tree_nodeINS_12__value_typeIiiEES3_EEEEEC1B8ue170006ILb1EvEEv, symObjAddr: 0x4A10, symBinAddr: 0x10000536C, symSize: 0x2C }
  - { offsetInCU: 0x1C081, offset: 0x1C081, size: 0x8, addend: 0x0, symName: __ZNSt3__117__compressed_pairImNS_19__map_value_compareIiNS_12__value_typeIiiEENS_4lessIiEELb1EEEEC1B8ue170006IiRKS6_EEOT_OT0_, symObjAddr: 0x4A3C, symBinAddr: 0x100005398, symSize: 0x3C }
  - { offsetInCU: 0x1C0D9, offset: 0x1C0D9, size: 0x8, addend: 0x0, symName: __ZNSt3__16__treeINS_12__value_typeIiiEENS_19__map_value_compareIiS2_NS_4lessIiEELb1EEENS_9allocatorIS2_EEE10__end_nodeB8ue170006Ev, symObjAddr: 0x4A78, symBinAddr: 0x1000053D4, symSize: 0x2C }
  - { offsetInCU: 0x1C0FF, offset: 0x1C0FF, size: 0x8, addend: 0x0, symName: __ZNSt3__16__treeINS_12__value_typeIiiEENS_19__map_value_compareIiS2_NS_4lessIiEELb1EEENS_9allocatorIS2_EEE12__begin_nodeB8ue170006Ev, symObjAddr: 0x4AA4, symBinAddr: 0x100005400, symSize: 0x14 }
  - { offsetInCU: 0x1C125, offset: 0x1C125, size: 0x8, addend: 0x0, symName: __ZNSt3__117__compressed_pairINS_15__tree_end_nodeIPNS_16__tree_node_baseIPvEEEENS_9allocatorINS_11__tree_nodeINS_12__value_typeIiiEES3_EEEEEC2B8ue170006ILb1EvEEv, symObjAddr: 0x4AB8, symBinAddr: 0x100005414, symSize: 0x34 }
  - { offsetInCU: 0x1C15A, offset: 0x1C15A, size: 0x8, addend: 0x0, symName: __ZNSt3__122__compressed_pair_elemINS_15__tree_end_nodeIPNS_16__tree_node_baseIPvEEEELi0ELb0EEC2B8ue170006ENS_16__value_init_tagE, symObjAddr: 0x4AEC, symBinAddr: 0x100005448, symSize: 0x2C }
  - { offsetInCU: 0x1C18E, offset: 0x1C18E, size: 0x8, addend: 0x0, symName: __ZNSt3__122__compressed_pair_elemINS_9allocatorINS_11__tree_nodeINS_12__value_typeIiiEEPvEEEELi1ELb1EEC2B8ue170006ENS_16__value_init_tagE, symObjAddr: 0x4B18, symBinAddr: 0x100005474, symSize: 0x2C }
  - { offsetInCU: 0x1C1C2, offset: 0x1C1C2, size: 0x8, addend: 0x0, symName: __ZNSt3__115__tree_end_nodeIPNS_16__tree_node_baseIPvEEEC1B8ue170006Ev, symObjAddr: 0x4B44, symBinAddr: 0x1000054A0, symSize: 0x2C }
  - { offsetInCU: 0x1C1EC, offset: 0x1C1EC, size: 0x8, addend: 0x0, symName: __ZNSt3__115__tree_end_nodeIPNS_16__tree_node_baseIPvEEEC2B8ue170006Ev, symObjAddr: 0x4B70, symBinAddr: 0x1000054CC, symSize: 0x18 }
  - { offsetInCU: 0x1C216, offset: 0x1C216, size: 0x8, addend: 0x0, symName: __ZNSt3__19allocatorINS_11__tree_nodeINS_12__value_typeIiiEEPvEEEC2B8ue170006Ev, symObjAddr: 0x4B88, symBinAddr: 0x1000054E4, symSize: 0x2C }
  - { offsetInCU: 0x1C240, offset: 0x1C240, size: 0x8, addend: 0x0, symName: __ZNSt3__116__non_trivial_ifILb1ENS_9allocatorINS_11__tree_nodeINS_12__value_typeIiiEEPvEEEEEC2B8ue170006Ev, symObjAddr: 0x4BB4, symBinAddr: 0x100005510, symSize: 0x14 }
  - { offsetInCU: 0x1C26A, offset: 0x1C26A, size: 0x8, addend: 0x0, symName: __ZNSt3__117__compressed_pairImNS_19__map_value_compareIiNS_12__value_typeIiiEENS_4lessIiEELb1EEEEC2B8ue170006IiRKS6_EEOT_OT0_, symObjAddr: 0x4BC8, symBinAddr: 0x100005524, symSize: 0x44 }
  - { offsetInCU: 0x1C2C2, offset: 0x1C2C2, size: 0x8, addend: 0x0, symName: __ZNSt3__122__compressed_pair_elemImLi0ELb0EEC2B8ue170006IivEEOT_, symObjAddr: 0x4C0C, symBinAddr: 0x100005568, symSize: 0x24 }
  - { offsetInCU: 0x1C304, offset: 0x1C304, size: 0x8, addend: 0x0, symName: __ZNSt3__122__compressed_pair_elemINS_19__map_value_compareIiNS_12__value_typeIiiEENS_4lessIiEELb1EEELi1ELb1EEC2B8ue170006IRKS6_vEEOT_, symObjAddr: 0x4C30, symBinAddr: 0x10000558C, symSize: 0x18 }
  - { offsetInCU: 0x1C346, offset: 0x1C346, size: 0x8, addend: 0x0, symName: __ZNSt3__114pointer_traitsIPNS_15__tree_end_nodeIPNS_16__tree_node_baseIPvEEEEE10pointer_toB8ue170006ERS6_, symObjAddr: 0x4C48, symBinAddr: 0x1000055A4, symSize: 0x14 }
  - { offsetInCU: 0x1C369, offset: 0x1C369, size: 0x8, addend: 0x0, symName: __ZNSt3__117__compressed_pairINS_15__tree_end_nodeIPNS_16__tree_node_baseIPvEEEENS_9allocatorINS_11__tree_nodeINS_12__value_typeIiiEES3_EEEEE5firstB8ue170006Ev, symObjAddr: 0x4C5C, symBinAddr: 0x1000055B8, symSize: 0x24 }
  - { offsetInCU: 0x1C38F, offset: 0x1C38F, size: 0x8, addend: 0x0, symName: __ZNSt3__122__compressed_pair_elemINS_15__tree_end_nodeIPNS_16__tree_node_baseIPvEEEELi0ELb0EE5__getB8ue170006Ev, symObjAddr: 0x4C80, symBinAddr: 0x1000055DC, symSize: 0x14 }
  - { offsetInCU: 0x1C3B5, offset: 0x1C3B5, size: 0x8, addend: 0x0, symName: __ZNSt3__13mapIiiNS_4lessIiEENS_9allocatorINS_4pairIKiiEEEEED2B8ue170006Ev, symObjAddr: 0x4C94, symBinAddr: 0x1000055F0, symSize: 0x2C }
  - { offsetInCU: 0x1C3DF, offset: 0x1C3DF, size: 0x8, addend: 0x0, symName: __ZNSt3__16__treeINS_12__value_typeIiiEENS_19__map_value_compareIiS2_NS_4lessIiEELb1EEENS_9allocatorIS2_EEED1Ev, symObjAddr: 0x4CC0, symBinAddr: 0x10000561C, symSize: 0x2C }
  - { offsetInCU: 0x1C40B, offset: 0x1C40B, size: 0x8, addend: 0x0, symName: __ZNSt3__16__treeINS_12__value_typeIiiEENS_19__map_value_compareIiS2_NS_4lessIiEELb1EEENS_9allocatorIS2_EEED2Ev, symObjAddr: 0x4CEC, symBinAddr: 0x100005648, symSize: 0x38 }
  - { offsetInCU: 0x1C437, offset: 0x1C437, size: 0x8, addend: 0x0, symName: __ZNSt3__16__treeINS_12__value_typeIiiEENS_19__map_value_compareIiS2_NS_4lessIiEELb1EEENS_9allocatorIS2_EEE7destroyEPNS_11__tree_nodeIS2_PvEE, symObjAddr: 0x4D24, symBinAddr: 0x100005680, symSize: 0xAC }
  - { offsetInCU: 0x1C484, offset: 0x1C484, size: 0x8, addend: 0x0, symName: __ZNKSt3__16__treeINS_12__value_typeIiiEENS_19__map_value_compareIiS2_NS_4lessIiEELb1EEENS_9allocatorIS2_EEE6__rootB8ue170006Ev, symObjAddr: 0x4DD0, symBinAddr: 0x10000572C, symSize: 0x28 }
  - { offsetInCU: 0x1C4AA, offset: 0x1C4AA, size: 0x8, addend: 0x0, symName: __ZNSt3__16__treeINS_12__value_typeIiiEENS_19__map_value_compareIiS2_NS_4lessIiEELb1EEENS_9allocatorIS2_EEE12__node_allocB8ue170006Ev, symObjAddr: 0x4DF8, symBinAddr: 0x100005754, symSize: 0x28 }
  - { offsetInCU: 0x1C4D0, offset: 0x1C4D0, size: 0x8, addend: 0x0, symName: __ZNSt3__116allocator_traitsINS_9allocatorINS_11__tree_nodeINS_12__value_typeIiiEEPvEEEEE7destroyB8ue170006INS_4pairIKiiEEvvEEvRS7_PT_, symObjAddr: 0x4E20, symBinAddr: 0x10000577C, symSize: 0x14 }
  - { offsetInCU: 0x1C50A, offset: 0x1C50A, size: 0x8, addend: 0x0, symName: __ZNSt3__122__tree_key_value_typesINS_12__value_typeIiiEEE9__get_ptrB8ue170006ERS2_, symObjAddr: 0x4E34, symBinAddr: 0x100005790, symSize: 0x24 }
  - { offsetInCU: 0x1C52E, offset: 0x1C52E, size: 0x8, addend: 0x0, symName: __ZNSt3__116allocator_traitsINS_9allocatorINS_11__tree_nodeINS_12__value_typeIiiEEPvEEEEE10deallocateB8ue170006ERS7_PS6_m, symObjAddr: 0x4E58, symBinAddr: 0x1000057B4, symSize: 0x34 }
  - { offsetInCU: 0x1C570, offset: 0x1C570, size: 0x8, addend: 0x0, symName: __ZNSt3__117__compressed_pairINS_15__tree_end_nodeIPNS_16__tree_node_baseIPvEEEENS_9allocatorINS_11__tree_nodeINS_12__value_typeIiiEES3_EEEEE6secondB8ue170006Ev, symObjAddr: 0x4E8C, symBinAddr: 0x1000057E8, symSize: 0x24 }
  - { offsetInCU: 0x1C596, offset: 0x1C596, size: 0x8, addend: 0x0, symName: __ZNSt3__122__compressed_pair_elemINS_9allocatorINS_11__tree_nodeINS_12__value_typeIiiEEPvEEEELi1ELb1EE5__getB8ue170006Ev, symObjAddr: 0x4EB0, symBinAddr: 0x10000580C, symSize: 0x14 }
  - { offsetInCU: 0x1C5BC, offset: 0x1C5BC, size: 0x8, addend: 0x0, symName: __ZNSt3__112__value_typeIiiE11__get_valueB8ue170006Ev, symObjAddr: 0x4EC4, symBinAddr: 0x100005820, symSize: 0x14 }
  - { offsetInCU: 0x1C5E2, offset: 0x1C5E2, size: 0x8, addend: 0x0, symName: __ZNSt3__19allocatorINS_11__tree_nodeINS_12__value_typeIiiEEPvEEE10deallocateB8ue170006EPS5_m, symObjAddr: 0x4ED8, symBinAddr: 0x100005834, symSize: 0x44 }
  - { offsetInCU: 0x1C624, offset: 0x1C624, size: 0x8, addend: 0x0, symName: __ZNKSt3__16__treeINS_12__value_typeIiiEENS_19__map_value_compareIiS2_NS_4lessIiEELb1EEENS_9allocatorIS2_EEE10__end_nodeB8ue170006Ev, symObjAddr: 0x4F1C, symBinAddr: 0x100005878, symSize: 0x2C }
  - { offsetInCU: 0x1C64A, offset: 0x1C64A, size: 0x8, addend: 0x0, symName: __ZNKSt3__117__compressed_pairINS_15__tree_end_nodeIPNS_16__tree_node_baseIPvEEEENS_9allocatorINS_11__tree_nodeINS_12__value_typeIiiEES3_EEEEE5firstB8ue170006Ev, symObjAddr: 0x4F48, symBinAddr: 0x1000058A4, symSize: 0x24 }
  - { offsetInCU: 0x1C670, offset: 0x1C670, size: 0x8, addend: 0x0, symName: __ZNKSt3__122__compressed_pair_elemINS_15__tree_end_nodeIPNS_16__tree_node_baseIPvEEEELi0ELb0EE5__getB8ue170006Ev, symObjAddr: 0x4F6C, symBinAddr: 0x1000058C8, symSize: 0x14 }
  - { offsetInCU: 0x1C696, offset: 0x1C696, size: 0x8, addend: 0x0, symName: __ZNSt3__16vectorINS_4pairIiiEENS_9allocatorIS2_EEE11__make_iterB8ue170006EPS2_, symObjAddr: 0x4F80, symBinAddr: 0x1000058DC, symSize: 0x30 }
  - { offsetInCU: 0x1C6CB, offset: 0x1C6CB, size: 0x8, addend: 0x0, symName: __ZNSt3__111__wrap_iterIPNS_4pairIiiEEEC1B8ue170006ES3_, symObjAddr: 0x4FB0, symBinAddr: 0x10000590C, symSize: 0x34 }
  - { offsetInCU: 0x1C703, offset: 0x1C703, size: 0x8, addend: 0x0, symName: __ZNSt3__111__wrap_iterIPNS_4pairIiiEEEC2B8ue170006ES3_, symObjAddr: 0x4FE4, symBinAddr: 0x100005940, symSize: 0x20 }
  - { offsetInCU: 0x1C73B, offset: 0x1C73B, size: 0x8, addend: 0x0, symName: __ZNKSt3__16__lessIvvEclB8ue170006INS_4pairIiiEES4_EEbRKT_RKT0_, symObjAddr: 0x5664, symBinAddr: 0x100005FC0, symSize: 0x34 }
  - { offsetInCU: 0x1C78F, offset: 0x1C78F, size: 0x8, addend: 0x0, symName: __ZNSt3__18_IterOpsINS_17_ClassicAlgPolicyEE9iter_swapB8ue170006IRPNS_4pairIiiEES7_EEvOT_OT0_, symObjAddr: 0x5698, symBinAddr: 0x100005FF4, symSize: 0x34 }
  - { offsetInCU: 0x1C7D7, offset: 0x1C7D7, size: 0x8, addend: 0x0, symName: __ZNSt3__18_IterOpsINS_17_ClassicAlgPolicyEE9iter_swapB8ue170006IRPNS_4pairIiiEES6_EEvOT_OT0_, symObjAddr: 0x5BE0, symBinAddr: 0x10000653C, symSize: 0x34 }
  - { offsetInCU: 0x1C81A, offset: 0x1C81A, size: 0x8, addend: 0x0, symName: __ZNSt3__14pairIiiE4swapB8ue170006ERS1_, symObjAddr: 0x677C, symBinAddr: 0x1000070D8, symSize: 0x44 }
  - { offsetInCU: 0x1C84F, offset: 0x1C84F, size: 0x8, addend: 0x0, symName: __ZNSt3__18_IterOpsINS_17_ClassicAlgPolicyEE11__iter_moveB8ue170006IRPNS_4pairIiiEEEENS_9enable_ifIXsr12is_referenceIDTdeclsr3stdE7declvalIRT_EEEEE5valueEDTclsr3stdE4movedeclsr3stdE7declvalISA_EEEEE4typeEOS9_, symObjAddr: 0x699C, symBinAddr: 0x1000072F8, symSize: 0x28 }
  - { offsetInCU: 0x1C87B, offset: 0x1C87B, size: 0x8, addend: 0x0, symName: __ZNSt3__14pairIiiEaSB8ue170006EOS1_, symObjAddr: 0x69C4, symBinAddr: 0x100007320, symSize: 0x30 }
  - { offsetInCU: 0x1C8B0, offset: 0x1C8B0, size: 0x8, addend: 0x0, symName: __ZNSt3__18_IterOpsINS_17_ClassicAlgPolicyEE25__validate_iter_referenceB8ue170006IRPNS_4pairIiiEEEEvv, symObjAddr: 0x69F4, symBinAddr: 0x100007350, symSize: 0x4 }
  - { offsetInCU: 0x1C8CE, offset: 0x1C8CE, size: 0x8, addend: 0x0, symName: __ZNSt3__18_IterOpsINS_17_ClassicAlgPolicyEE4nextB8ue170006IPNS_4pairIiiEEEET_S7_S7_, symObjAddr: 0x69F8, symBinAddr: 0x100007354, symSize: 0x18 }
  - { offsetInCU: 0x1C904, offset: 0x1C904, size: 0x8, addend: 0x0, symName: __ZNSt3__18_IterOpsINS_17_ClassicAlgPolicyEE9iter_swapB8ue170006IPNS_4pairIiiEES6_EEvOT_OT0_, symObjAddr: 0x7944, symBinAddr: 0x1000082A0, symSize: 0x34 }
  - { offsetInCU: 0x1C965, offset: 0x1C965, size: 0x8, addend: 0x0, symName: __ZNSt3__14pairIPNS0_IiiEEbEC1B8ue170006IRS2_RbLPv0EEEOT_OT0_, symObjAddr: 0x7994, symBinAddr: 0x1000082F0, symSize: 0x3C }
  - { offsetInCU: 0x1C9C3, offset: 0x1C9C3, size: 0x8, addend: 0x0, symName: __ZNSt3__14pairIPNS0_IiiEEbEC2B8ue170006IRS2_RbLPv0EEEOT_OT0_, symObjAddr: 0x79D0, symBinAddr: 0x10000832C, symSize: 0x38 }
  - { offsetInCU: 0x1CA21, offset: 0x1CA21, size: 0x8, addend: 0x0, symName: __ZNSt3__118__unwrap_iter_implINS_11__wrap_iterIPNS_4pairIiiEEEELb1EE8__unwrapB8ue170006ES5_, symObjAddr: 0x7A08, symBinAddr: 0x100008364, symSize: 0x28 }
  - { offsetInCU: 0x1CA4E, offset: 0x1CA4E, size: 0x8, addend: 0x0, symName: __ZNSt3__119__to_address_helperINS_11__wrap_iterIPNS_4pairIiiEEEEvE6__callB8ue170006ERKS5_, symObjAddr: 0x7A54, symBinAddr: 0x1000083B0, symSize: 0x30 }
  - { offsetInCU: 0x1CA71, offset: 0x1CA71, size: 0x8, addend: 0x0, symName: __ZNSt3__114pointer_traitsINS_11__wrap_iterIPNS_4pairIiiEEEEE10to_addressB8ue170006ES5_, symObjAddr: 0x7A84, symBinAddr: 0x1000083E0, symSize: 0x2C }
  - { offsetInCU: 0x1CA94, offset: 0x1CA94, size: 0x8, addend: 0x0, symName: __ZNKSt3__111__wrap_iterIPNS_4pairIiiEEE4baseB8ue170006Ev, symObjAddr: 0x7AB0, symBinAddr: 0x10000840C, symSize: 0x18 }
  - { offsetInCU: 0x1CABA, offset: 0x1CABA, size: 0x8, addend: 0x0, symName: __ZNSt3__16__treeINS_12__value_typeIiiEENS_19__map_value_compareIiS2_NS_4lessIiEELb1EEENS_9allocatorIS2_EEE4findIiEENS_15__tree_iteratorIS2_PNS_11__tree_nodeIS2_PvEElEERKT_, symObjAddr: 0x7AC8, symBinAddr: 0x100008424, symSize: 0xF8 }
  - { offsetInCU: 0x1CB09, offset: 0x1CB09, size: 0x8, addend: 0x0, symName: __ZNSt3__114__map_iteratorINS_15__tree_iteratorINS_12__value_typeIiiEEPNS_11__tree_nodeIS3_PvEElEEEC1B8ue170006ES8_, symObjAddr: 0x7BC0, symBinAddr: 0x10000851C, symSize: 0x34 }
  - { offsetInCU: 0x1CB42, offset: 0x1CB42, size: 0x8, addend: 0x0, symName: __ZNSt3__16__treeINS_12__value_typeIiiEENS_19__map_value_compareIiS2_NS_4lessIiEELb1EEENS_9allocatorIS2_EEE13__lower_boundIiEENS_15__tree_iteratorIS2_PNS_11__tree_nodeIS2_PvEElEERKT_SF_PNS_15__tree_end_nodeIPNS_16__tree_node_baseISD_EEEE, symObjAddr: 0x7BF4, symBinAddr: 0x100008550, symSize: 0xA4 }
  - { offsetInCU: 0x1CBA0, offset: 0x1CBA0, size: 0x8, addend: 0x0, symName: __ZNSt3__16__treeINS_12__value_typeIiiEENS_19__map_value_compareIiS2_NS_4lessIiEELb1EEENS_9allocatorIS2_EEE3endB8ue170006Ev, symObjAddr: 0x7CCC, symBinAddr: 0x100008628, symSize: 0x34 }
  - { offsetInCU: 0x1CBC6, offset: 0x1CBC6, size: 0x8, addend: 0x0, symName: __ZNSt3__16__treeINS_12__value_typeIiiEENS_19__map_value_compareIiS2_NS_4lessIiEELb1EEENS_9allocatorIS2_EEE10value_compB8ue170006Ev, symObjAddr: 0x7D00, symBinAddr: 0x10000865C, symSize: 0x28 }
  - { offsetInCU: 0x1CBEC, offset: 0x1CBEC, size: 0x8, addend: 0x0, symName: __ZNKSt3__119__map_value_compareIiNS_12__value_typeIiiEENS_4lessIiEELb1EEclB8ue170006ERKiRKS2_, symObjAddr: 0x7D28, symBinAddr: 0x100008684, symSize: 0x50 }
  - { offsetInCU: 0x1CC30, offset: 0x1CC30, size: 0x8, addend: 0x0, symName: __ZNKSt3__115__tree_iteratorINS_12__value_typeIiiEEPNS_11__tree_nodeIS2_PvEElEdeB8ue170006Ev, symObjAddr: 0x7D78, symBinAddr: 0x1000086D4, symSize: 0x28 }
  - { offsetInCU: 0x1CC56, offset: 0x1CC56, size: 0x8, addend: 0x0, symName: __ZNKSt3__119__map_value_compareIiNS_12__value_typeIiiEENS_4lessIiEELb1EEclB8ue170006ERKS2_RKi, symObjAddr: 0x7DA0, symBinAddr: 0x1000086FC, symSize: 0x48 }
  - { offsetInCU: 0x1CC9A, offset: 0x1CC9A, size: 0x8, addend: 0x0, symName: __ZNSt3__115__tree_iteratorINS_12__value_typeIiiEEPNS_11__tree_nodeIS2_PvEElEC1B8ue170006EPNS_15__tree_end_nodeIPNS_16__tree_node_baseIS4_EEEE, symObjAddr: 0x7DE8, symBinAddr: 0x100008744, symSize: 0x34 }
  - { offsetInCU: 0x1CCD3, offset: 0x1CCD3, size: 0x8, addend: 0x0, symName: __ZNKSt3__14lessIiEclB8ue170006ERKiS3_, symObjAddr: 0x7E1C, symBinAddr: 0x100008778, symSize: 0x34 }
  - { offsetInCU: 0x1CD17, offset: 0x1CD17, size: 0x8, addend: 0x0, symName: __ZNKSt3__112__value_typeIiiE11__get_valueB8ue170006Ev, symObjAddr: 0x7E50, symBinAddr: 0x1000087AC, symSize: 0x14 }
  - { offsetInCU: 0x1CD3D, offset: 0x1CD3D, size: 0x8, addend: 0x0, symName: __ZNSt3__115__tree_iteratorINS_12__value_typeIiiEEPNS_11__tree_nodeIS2_PvEElEC2B8ue170006EPNS_15__tree_end_nodeIPNS_16__tree_node_baseIS4_EEEE, symObjAddr: 0x7E64, symBinAddr: 0x1000087C0, symSize: 0x20 }
  - { offsetInCU: 0x1CD76, offset: 0x1CD76, size: 0x8, addend: 0x0, symName: __ZNSt3__117__compressed_pairImNS_19__map_value_compareIiNS_12__value_typeIiiEENS_4lessIiEELb1EEEE6secondB8ue170006Ev, symObjAddr: 0x7EB4, symBinAddr: 0x100008810, symSize: 0x24 }
  - { offsetInCU: 0x1CD9C, offset: 0x1CD9C, size: 0x8, addend: 0x0, symName: __ZNSt3__122__compressed_pair_elemINS_19__map_value_compareIiNS_12__value_typeIiiEENS_4lessIiEELb1EEELi1ELb1EE5__getB8ue170006Ev, symObjAddr: 0x7ED8, symBinAddr: 0x100008834, symSize: 0x14 }
  - { offsetInCU: 0x1CDC2, offset: 0x1CDC2, size: 0x8, addend: 0x0, symName: __ZNKSt3__115__tree_iteratorINS_12__value_typeIiiEEPNS_11__tree_nodeIS2_PvEElE8__get_npB8ue170006Ev, symObjAddr: 0x7EEC, symBinAddr: 0x100008848, symSize: 0x18 }
  - { offsetInCU: 0x1CDE8, offset: 0x1CDE8, size: 0x8, addend: 0x0, symName: __ZNSt3__114__map_iteratorINS_15__tree_iteratorINS_12__value_typeIiiEEPNS_11__tree_nodeIS3_PvEElEEEC2B8ue170006ES8_, symObjAddr: 0x7F04, symBinAddr: 0x100008860, symSize: 0x20 }
  - { offsetInCU: 0x1CE35, offset: 0x1CE35, size: 0x8, addend: 0x0, symName: __ZNSt3__16__treeINS_12__value_typeIiiEENS_19__map_value_compareIiS2_NS_4lessIiEELb1EEENS_9allocatorIS2_EEE25__emplace_unique_key_argsIiJRKNS_21piecewise_construct_tENS_5tupleIJRKiEEENSE_IJEEEEEENS_4pairINS_15__tree_iteratorIS2_PNS_11__tree_nodeIS2_PvEElEEbEERKT_DpOT0_, symObjAddr: 0x7F24, symBinAddr: 0x100008880, symSize: 0x100 }
  - { offsetInCU: 0x1CF0C, offset: 0x1CF0C, size: 0x8, addend: 0x0, symName: __ZNKSt3__115__tree_iteratorINS_12__value_typeIiiEEPNS_11__tree_nodeIS2_PvEElEptB8ue170006Ev, symObjAddr: 0x8054, symBinAddr: 0x1000089B0, symSize: 0x2C }
  - { offsetInCU: 0x1CF32, offset: 0x1CF32, size: 0x8, addend: 0x0, symName: __ZNSt3__16__treeINS_12__value_typeIiiEENS_19__map_value_compareIiS2_NS_4lessIiEELb1EEENS_9allocatorIS2_EEE12__find_equalIiEERPNS_16__tree_node_baseIPvEERPNS_15__tree_end_nodeISE_EERKT_, symObjAddr: 0x8080, symBinAddr: 0x1000089DC, symSize: 0x184 }
  - { offsetInCU: 0x1CF9F, offset: 0x1CF9F, size: 0x8, addend: 0x0, symName: __ZNSt3__16__treeINS_12__value_typeIiiEENS_19__map_value_compareIiS2_NS_4lessIiEELb1EEENS_9allocatorIS2_EEE16__construct_nodeIJRKNS_21piecewise_construct_tENS_5tupleIJRKiEEENSE_IJEEEEEENS_10unique_ptrINS_11__tree_nodeIS2_PvEENS_22__tree_node_destructorINS7_ISM_EEEEEEDpOT_, symObjAddr: 0x8204, symBinAddr: 0x100008B60, symSize: 0x120 }
  - { offsetInCU: 0x1D028, offset: 0x1D028, size: 0x8, addend: 0x0, symName: __ZNSt3__16__treeINS_12__value_typeIiiEENS_19__map_value_compareIiS2_NS_4lessIiEELb1EEENS_9allocatorIS2_EEE16__insert_node_atEPNS_15__tree_end_nodeIPNS_16__tree_node_baseIPvEEEERSE_SE_, symObjAddr: 0x8324, symBinAddr: 0x100008C80, symSize: 0xCC }
  - { offsetInCU: 0x1D07D, offset: 0x1D07D, size: 0x8, addend: 0x0, symName: __ZNKSt3__110unique_ptrINS_11__tree_nodeINS_12__value_typeIiiEEPvEENS_22__tree_node_destructorINS_9allocatorIS5_EEEEE3getB8ue170006Ev, symObjAddr: 0x83F0, symBinAddr: 0x100008D4C, symSize: 0x28 }
  - { offsetInCU: 0x1D0A3, offset: 0x1D0A3, size: 0x8, addend: 0x0, symName: __ZNSt3__110unique_ptrINS_11__tree_nodeINS_12__value_typeIiiEEPvEENS_22__tree_node_destructorINS_9allocatorIS5_EEEEE7releaseB8ue170006Ev, symObjAddr: 0x8418, symBinAddr: 0x100008D74, symSize: 0x44 }
  - { offsetInCU: 0x1D0D8, offset: 0x1D0D8, size: 0x8, addend: 0x0, symName: __ZNSt3__110unique_ptrINS_11__tree_nodeINS_12__value_typeIiiEEPvEENS_22__tree_node_destructorINS_9allocatorIS5_EEEEED1B8ue170006Ev, symObjAddr: 0x845C, symBinAddr: 0x100008DB8, symSize: 0x2C }
  - { offsetInCU: 0x1D102, offset: 0x1D102, size: 0x8, addend: 0x0, symName: __ZNSt3__115__tree_iteratorINS_12__value_typeIiiEEPNS_11__tree_nodeIS2_PvEElEC1B8ue170006ES6_, symObjAddr: 0x8488, symBinAddr: 0x100008DE4, symSize: 0x34 }
  - { offsetInCU: 0x1D140, offset: 0x1D140, size: 0x8, addend: 0x0, symName: __ZNSt3__14pairINS_15__tree_iteratorINS_12__value_typeIiiEEPNS_11__tree_nodeIS3_PvEElEEbEC1B8ue170006IS8_RbLS5_0EEEOT_OT0_, symObjAddr: 0x84BC, symBinAddr: 0x100008E18, symSize: 0x3C }
  - { offsetInCU: 0x1D19E, offset: 0x1D19E, size: 0x8, addend: 0x0, symName: __ZNKSt3__16__treeINS_12__value_typeIiiEENS_19__map_value_compareIiS2_NS_4lessIiEELb1EEENS_9allocatorIS2_EEE10__root_ptrB8ue170006Ev, symObjAddr: 0x84F8, symBinAddr: 0x100008E54, symSize: 0x24 }
  - { offsetInCU: 0x1D1C4, offset: 0x1D1C4, size: 0x8, addend: 0x0, symName: __ZNSt3__116allocator_traitsINS_9allocatorINS_11__tree_nodeINS_12__value_typeIiiEEPvEEEEE8allocateB8ue170006ERS7_m, symObjAddr: 0x851C, symBinAddr: 0x100008E78, symSize: 0x2C }
  - { offsetInCU: 0x1D1F7, offset: 0x1D1F7, size: 0x8, addend: 0x0, symName: __ZNSt3__122__tree_node_destructorINS_9allocatorINS_11__tree_nodeINS_12__value_typeIiiEEPvEEEEEC1B8ue170006ERS7_b, symObjAddr: 0x8548, symBinAddr: 0x100008EA4, symSize: 0x48 }
  - { offsetInCU: 0x1D244, offset: 0x1D244, size: 0x8, addend: 0x0, symName: __ZNSt3__110unique_ptrINS_11__tree_nodeINS_12__value_typeIiiEEPvEENS_22__tree_node_destructorINS_9allocatorIS5_EEEEEC1B8ue170006ILb1EvEEPS5_NS_16__dependent_typeINS_27__unique_ptr_deleter_sfinaeIS9_EEXT_EE20__good_rval_ref_typeE, symObjAddr: 0x8590, symBinAddr: 0x100008EEC, symSize: 0x3C }
  - { offsetInCU: 0x1D295, offset: 0x1D295, size: 0x8, addend: 0x0, symName: __ZNSt3__116allocator_traitsINS_9allocatorINS_11__tree_nodeINS_12__value_typeIiiEEPvEEEEE9constructB8ue170006INS_4pairIKiiEEJRKNS_21piecewise_construct_tENS_5tupleIJRSB_EEENSG_IJEEEEvEEvRS7_PT_DpOT0_, symObjAddr: 0x85CC, symBinAddr: 0x100008F28, symSize: 0x44 }
  - { offsetInCU: 0x1D314, offset: 0x1D314, size: 0x8, addend: 0x0, symName: __ZNKSt3__110unique_ptrINS_11__tree_nodeINS_12__value_typeIiiEEPvEENS_22__tree_node_destructorINS_9allocatorIS5_EEEEEptB8ue170006Ev, symObjAddr: 0x8610, symBinAddr: 0x100008F6C, symSize: 0x28 }
  - { offsetInCU: 0x1D33A, offset: 0x1D33A, size: 0x8, addend: 0x0, symName: __ZNSt3__110unique_ptrINS_11__tree_nodeINS_12__value_typeIiiEEPvEENS_22__tree_node_destructorINS_9allocatorIS5_EEEEE11get_deleterB8ue170006Ev, symObjAddr: 0x8638, symBinAddr: 0x100008F94, symSize: 0x24 }
  - { offsetInCU: 0x1D360, offset: 0x1D360, size: 0x8, addend: 0x0, symName: __ZNSt3__19allocatorINS_11__tree_nodeINS_12__value_typeIiiEEPvEEE8allocateB8ue170006Em, symObjAddr: 0x865C, symBinAddr: 0x100008FB8, symSize: 0x5C }
  - { offsetInCU: 0x1D39E, offset: 0x1D39E, size: 0x8, addend: 0x0, symName: __ZNSt3__116allocator_traitsINS_9allocatorINS_11__tree_nodeINS_12__value_typeIiiEEPvEEEEE8max_sizeB8ue170006IS7_vEEmRKS7_, symObjAddr: 0x86B8, symBinAddr: 0x100009014, symSize: 0x24 }
  - { offsetInCU: 0x1D3CC, offset: 0x1D3CC, size: 0x8, addend: 0x0, symName: __ZNKSt3__19allocatorINS_11__tree_nodeINS_12__value_typeIiiEEPvEEE8max_sizeB8ue170006Ev, symObjAddr: 0x86DC, symBinAddr: 0x100009038, symSize: 0x18 }
  - { offsetInCU: 0x1D3F2, offset: 0x1D3F2, size: 0x8, addend: 0x0, symName: __ZNSt3__122__tree_node_destructorINS_9allocatorINS_11__tree_nodeINS_12__value_typeIiiEEPvEEEEEC2B8ue170006ERS7_b, symObjAddr: 0x86F4, symBinAddr: 0x100009050, symSize: 0x38 }
  - { offsetInCU: 0x1D43A, offset: 0x1D43A, size: 0x8, addend: 0x0, symName: __ZNSt3__110unique_ptrINS_11__tree_nodeINS_12__value_typeIiiEEPvEENS_22__tree_node_destructorINS_9allocatorIS5_EEEEEC2B8ue170006ILb1EvEEPS5_NS_16__dependent_typeINS_27__unique_ptr_deleter_sfinaeIS9_EEXT_EE20__good_rval_ref_typeE, symObjAddr: 0x872C, symBinAddr: 0x100009088, symSize: 0x48 }
  - { offsetInCU: 0x1D48B, offset: 0x1D48B, size: 0x8, addend: 0x0, symName: __ZNSt3__117__compressed_pairIPNS_11__tree_nodeINS_12__value_typeIiiEEPvEENS_22__tree_node_destructorINS_9allocatorIS5_EEEEEC1B8ue170006IRS6_SA_EEOT_OT0_, symObjAddr: 0x8774, symBinAddr: 0x1000090D0, symSize: 0x3C }
  - { offsetInCU: 0x1D4E3, offset: 0x1D4E3, size: 0x8, addend: 0x0, symName: __ZNSt3__117__compressed_pairIPNS_11__tree_nodeINS_12__value_typeIiiEEPvEENS_22__tree_node_destructorINS_9allocatorIS5_EEEEEC2B8ue170006IRS6_SA_EEOT_OT0_, symObjAddr: 0x87B0, symBinAddr: 0x10000910C, symSize: 0x48 }
  - { offsetInCU: 0x1D53B, offset: 0x1D53B, size: 0x8, addend: 0x0, symName: __ZNSt3__122__compressed_pair_elemIPNS_11__tree_nodeINS_12__value_typeIiiEEPvEELi0ELb0EEC2B8ue170006IRS6_vEEOT_, symObjAddr: 0x87F8, symBinAddr: 0x100009154, symSize: 0x24 }
  - { offsetInCU: 0x1D57D, offset: 0x1D57D, size: 0x8, addend: 0x0, symName: __ZNSt3__122__compressed_pair_elemINS_22__tree_node_destructorINS_9allocatorINS_11__tree_nodeINS_12__value_typeIiiEEPvEEEEEELi1ELb0EEC2B8ue170006IS9_vEEOT_, symObjAddr: 0x881C, symBinAddr: 0x100009178, symSize: 0x24 }
  - { offsetInCU: 0x1D5BF, offset: 0x1D5BF, size: 0x8, addend: 0x0, symName: __ZNSt3__19allocatorINS_11__tree_nodeINS_12__value_typeIiiEEPvEEE9constructB8ue170006INS_4pairIKiiEEJRKNS_21piecewise_construct_tENS_5tupleIJRS9_EEENSE_IJEEEEEEvPT_DpOT0_, symObjAddr: 0x8840, symBinAddr: 0x10000919C, symSize: 0x44 }
  - { offsetInCU: 0x1D63B, offset: 0x1D63B, size: 0x8, addend: 0x0, symName: __ZNSt3__14pairIKiiEC1B8ue170006IJRS1_EJEEENS_21piecewise_construct_tENS_5tupleIJDpT_EEENS6_IJDpT0_EEE, symObjAddr: 0x8884, symBinAddr: 0x1000091E0, symSize: 0x44 }
  - { offsetInCU: 0x1D6A2, offset: 0x1D6A2, size: 0x8, addend: 0x0, symName: __ZNSt3__14pairIKiiEC1B8ue170006IJRS1_EJEJLm0EEJEEENS_21piecewise_construct_tERNS_5tupleIJDpT_EEERNS6_IJDpT0_EEENS_15__tuple_indicesIJXspT1_EEEENSF_IJXspT2_EEEE, symObjAddr: 0x88C8, symBinAddr: 0x100009224, symSize: 0x3C }
  - { offsetInCU: 0x1D72F, offset: 0x1D72F, size: 0x8, addend: 0x0, symName: __ZNSt3__14pairIKiiEC2B8ue170006IJRS1_EJEJLm0EEJEEENS_21piecewise_construct_tERNS_5tupleIJDpT_EEERNS6_IJDpT0_EEENS_15__tuple_indicesIJXspT1_EEEENSF_IJXspT2_EEEE, symObjAddr: 0x8904, symBinAddr: 0x100009260, symSize: 0x48 }
  - { offsetInCU: 0x1D7BC, offset: 0x1D7BC, size: 0x8, addend: 0x0, symName: __ZNSt3__112__tuple_leafILm0ERKiLb0EE3getB8ue170006Ev, symObjAddr: 0x8970, symBinAddr: 0x1000092CC, symSize: 0x18 }
  - { offsetInCU: 0x1D7E2, offset: 0x1D7E2, size: 0x8, addend: 0x0, symName: __ZNKSt3__117__compressed_pairIPNS_11__tree_nodeINS_12__value_typeIiiEEPvEENS_22__tree_node_destructorINS_9allocatorIS5_EEEEE5firstB8ue170006Ev, symObjAddr: 0x8988, symBinAddr: 0x1000092E4, symSize: 0x24 }
  - { offsetInCU: 0x1D808, offset: 0x1D808, size: 0x8, addend: 0x0, symName: __ZNKSt3__122__compressed_pair_elemIPNS_11__tree_nodeINS_12__value_typeIiiEEPvEELi0ELb0EE5__getB8ue170006Ev, symObjAddr: 0x89AC, symBinAddr: 0x100009308, symSize: 0x14 }
  - { offsetInCU: 0x1D82E, offset: 0x1D82E, size: 0x8, addend: 0x0, symName: __ZNSt3__117__compressed_pairIPNS_11__tree_nodeINS_12__value_typeIiiEEPvEENS_22__tree_node_destructorINS_9allocatorIS5_EEEEE6secondB8ue170006Ev, symObjAddr: 0x89C0, symBinAddr: 0x10000931C, symSize: 0x28 }
  - { offsetInCU: 0x1D854, offset: 0x1D854, size: 0x8, addend: 0x0, symName: __ZNSt3__122__compressed_pair_elemINS_22__tree_node_destructorINS_9allocatorINS_11__tree_nodeINS_12__value_typeIiiEEPvEEEEEELi1ELb0EE5__getB8ue170006Ev, symObjAddr: 0x89E8, symBinAddr: 0x100009344, symSize: 0x14 }
  - { offsetInCU: 0x1D87A, offset: 0x1D87A, size: 0x8, addend: 0x0, symName: __ZNSt3__16__treeINS_12__value_typeIiiEENS_19__map_value_compareIiS2_NS_4lessIiEELb1EEENS_9allocatorIS2_EEE4sizeB8ue170006Ev, symObjAddr: 0x8D28, symBinAddr: 0x100009684, symSize: 0x28 }
  - { offsetInCU: 0x1D8A0, offset: 0x1D8A0, size: 0x8, addend: 0x0, symName: __ZNKSt3__116__tree_node_baseIPvE15__parent_unsafeB8ue170006Ev, symObjAddr: 0x8D50, symBinAddr: 0x1000096AC, symSize: 0x18 }
  - { offsetInCU: 0x1D8C6, offset: 0x1D8C6, size: 0x8, addend: 0x0, symName: __ZNSt3__116__tree_node_baseIPvE12__set_parentB8ue170006EPS2_, symObjAddr: 0x8F38, symBinAddr: 0x100009894, symSize: 0x20 }
  - { offsetInCU: 0x1D8FB, offset: 0x1D8FB, size: 0x8, addend: 0x0, symName: __ZNSt3__117__compressed_pairImNS_19__map_value_compareIiNS_12__value_typeIiiEENS_4lessIiEELb1EEEE5firstB8ue170006Ev, symObjAddr: 0x8F58, symBinAddr: 0x1000098B4, symSize: 0x24 }
  - { offsetInCU: 0x1D921, offset: 0x1D921, size: 0x8, addend: 0x0, symName: __ZNSt3__117__compressed_pairIPNS_11__tree_nodeINS_12__value_typeIiiEEPvEENS_22__tree_node_destructorINS_9allocatorIS5_EEEEE5firstB8ue170006Ev, symObjAddr: 0x8F7C, symBinAddr: 0x1000098D8, symSize: 0x24 }
  - { offsetInCU: 0x1D947, offset: 0x1D947, size: 0x8, addend: 0x0, symName: __ZNSt3__122__compressed_pair_elemIPNS_11__tree_nodeINS_12__value_typeIiiEEPvEELi0ELb0EE5__getB8ue170006Ev, symObjAddr: 0x8FA0, symBinAddr: 0x1000098FC, symSize: 0x14 }
  - { offsetInCU: 0x1D96D, offset: 0x1D96D, size: 0x8, addend: 0x0, symName: __ZNSt3__110unique_ptrINS_11__tree_nodeINS_12__value_typeIiiEEPvEENS_22__tree_node_destructorINS_9allocatorIS5_EEEEED2B8ue170006Ev, symObjAddr: 0x8FB4, symBinAddr: 0x100009910, symSize: 0x30 }
  - { offsetInCU: 0x1D997, offset: 0x1D997, size: 0x8, addend: 0x0, symName: __ZNSt3__110unique_ptrINS_11__tree_nodeINS_12__value_typeIiiEEPvEENS_22__tree_node_destructorINS_9allocatorIS5_EEEEE5resetB8ue170006EPS5_, symObjAddr: 0x8FE4, symBinAddr: 0x100009940, symSize: 0x78 }
  - { offsetInCU: 0x1D9DB, offset: 0x1D9DB, size: 0x8, addend: 0x0, symName: __ZNSt3__122__tree_node_destructorINS_9allocatorINS_11__tree_nodeINS_12__value_typeIiiEEPvEEEEEclB8ue170006EPS6_, symObjAddr: 0x905C, symBinAddr: 0x1000099B8, symSize: 0x94 }
  - { offsetInCU: 0x1DA10, offset: 0x1DA10, size: 0x8, addend: 0x0, symName: __ZNSt3__115__tree_iteratorINS_12__value_typeIiiEEPNS_11__tree_nodeIS2_PvEElEC2B8ue170006ES6_, symObjAddr: 0x90F0, symBinAddr: 0x100009A4C, symSize: 0x20 }
  - { offsetInCU: 0x1DA49, offset: 0x1DA49, size: 0x8, addend: 0x0, symName: __ZNSt3__14pairINS_15__tree_iteratorINS_12__value_typeIiiEEPNS_11__tree_nodeIS3_PvEElEEbEC2B8ue170006IS8_RbLS5_0EEEOT_OT0_, symObjAddr: 0x9110, symBinAddr: 0x100009A6C, symSize: 0x38 }
  - { offsetInCU: 0x1DAA7, offset: 0x1DAA7, size: 0x8, addend: 0x0, symName: __ZNSt3__15tupleIJRKiEEC1B8ue170006INS_4_AndELi0EEES2_, symObjAddr: 0x9148, symBinAddr: 0x100009AA4, symSize: 0x34 }
  - { offsetInCU: 0x1DAEF, offset: 0x1DAEF, size: 0x8, addend: 0x0, symName: __ZNSt3__15tupleIJRKiEEC2B8ue170006INS_4_AndELi0EEES2_, symObjAddr: 0x917C, symBinAddr: 0x100009AD8, symSize: 0x34 }
  - { offsetInCU: 0x1DB37, offset: 0x1DB37, size: 0x8, addend: 0x0, symName: __ZNSt3__112__tuple_implINS_15__tuple_indicesIJLm0EEEEJRKiEEC1B8ue170006IJLm0EEJS4_EJEJEJS4_EEENS1_IJXspT_EEEENS_13__tuple_typesIJDpT0_EEENS1_IJXspT1_EEEENS8_IJDpT2_EEEDpOT3_, symObjAddr: 0x91B0, symBinAddr: 0x100009B0C, symSize: 0x34 }
  - { offsetInCU: 0x1DBC8, offset: 0x1DBC8, size: 0x8, addend: 0x0, symName: __ZNSt3__112__tuple_implINS_15__tuple_indicesIJLm0EEEEJRKiEEC2B8ue170006IJLm0EEJS4_EJEJEJS4_EEENS1_IJXspT_EEEENS_13__tuple_typesIJDpT0_EEENS1_IJXspT1_EEEENS8_IJDpT2_EEEDpOT3_, symObjAddr: 0x91E4, symBinAddr: 0x100009B40, symSize: 0x34 }
  - { offsetInCU: 0x1DC59, offset: 0x1DC59, size: 0x8, addend: 0x0, symName: __ZNSt3__112__tuple_leafILm0ERKiLb0EEC2B8ue170006IS2_vEEOT_, symObjAddr: 0x9218, symBinAddr: 0x100009B74, symSize: 0x20 }
  - { offsetInCU: 0x1DC9C, offset: 0x1DC9C, size: 0x8, addend: 0x0, symName: __ZNSt3__114pointer_traitsIPNS_12__value_typeIiiEEE10pointer_toB8ue170006ERS2_, symObjAddr: 0x9238, symBinAddr: 0x100009B94, symSize: 0x14 }
  - { offsetInCU: 0x1DCC9, offset: 0x1DCC9, size: 0x8, addend: 0x0, symName: '__ZZ4mainENK3$_0clENSt3__14pairIiiEES2_', symObjAddr: 0x984C, symBinAddr: 0x10000A1A8, symSize: 0x2C }
  - { offsetInCU: 0x1DD0F, offset: 0x1DD0F, size: 0x8, addend: 0x0, symName: __ZNSt3__16vectorIiNS_9allocatorIiEEEC2EmRKi, symObjAddr: 0xB94C, symBinAddr: 0x10000C2A8, symSize: 0xDC }
  - { offsetInCU: 0x1DD6F, offset: 0x1DD6F, size: 0x8, addend: 0x0, symName: __ZNSt3__117__compressed_pairIPiNS_9allocatorIiEEEC1B8ue170006IDnNS_18__default_init_tagEEEOT_OT0_, symObjAddr: 0xBA28, symBinAddr: 0x10000C384, symSize: 0x3C }
  - { offsetInCU: 0x1DDC7, offset: 0x1DDC7, size: 0x8, addend: 0x0, symName: __ZNSt3__16vectorIiNS_9allocatorIiEEE16__destroy_vectorC1B8ue170006ERS3_, symObjAddr: 0xBAA4, symBinAddr: 0x10000C400, symSize: 0x34 }
  - { offsetInCU: 0x1DE00, offset: 0x1DE00, size: 0x8, addend: 0x0, symName: __ZNSt3__16vectorIiNS_9allocatorIiEEE11__vallocateB8ue170006Em, symObjAddr: 0xBAD8, symBinAddr: 0x10000C434, symSize: 0xAC }
  - { offsetInCU: 0x1DE44, offset: 0x1DE44, size: 0x8, addend: 0x0, symName: __ZNSt3__16vectorIiNS_9allocatorIiEEE18__construct_at_endEmRKi, symObjAddr: 0xBB84, symBinAddr: 0x10000C4E0, symSize: 0xD0 }
  - { offsetInCU: 0x1DEC5, offset: 0x1DEC5, size: 0x8, addend: 0x0, symName: __ZNSt3__128__exception_guard_exceptionsINS_6vectorIiNS_9allocatorIiEEE16__destroy_vectorEE10__completeB8ue170006Ev, symObjAddr: 0xBC54, symBinAddr: 0x10000C5B0, symSize: 0x1C }
  - { offsetInCU: 0x1DEEB, offset: 0x1DEEB, size: 0x8, addend: 0x0, symName: __ZNSt3__128__exception_guard_exceptionsINS_6vectorIiNS_9allocatorIiEEE16__destroy_vectorEED1B8ue170006Ev, symObjAddr: 0xBC70, symBinAddr: 0x10000C5CC, symSize: 0x2C }
  - { offsetInCU: 0x1DF15, offset: 0x1DF15, size: 0x8, addend: 0x0, symName: __ZNSt3__117__compressed_pairIPiNS_9allocatorIiEEEC2B8ue170006IDnNS_18__default_init_tagEEEOT_OT0_, symObjAddr: 0xBC9C, symBinAddr: 0x10000C5F8, symSize: 0x40 }
  - { offsetInCU: 0x1DF6D, offset: 0x1DF6D, size: 0x8, addend: 0x0, symName: __ZNSt3__122__compressed_pair_elemIPiLi0ELb0EEC2B8ue170006IDnvEEOT_, symObjAddr: 0xBCDC, symBinAddr: 0x10000C638, symSize: 0x1C }
  - { offsetInCU: 0x1DFAF, offset: 0x1DFAF, size: 0x8, addend: 0x0, symName: __ZNSt3__122__compressed_pair_elemINS_9allocatorIiEELi1ELb1EEC2B8ue170006ENS_18__default_init_tagE, symObjAddr: 0xBCF8, symBinAddr: 0x10000C654, symSize: 0x2C }
  - { offsetInCU: 0x1DFE3, offset: 0x1DFE3, size: 0x8, addend: 0x0, symName: __ZNSt3__19allocatorIiEC2B8ue170006Ev, symObjAddr: 0xBD24, symBinAddr: 0x10000C680, symSize: 0x2C }
  - { offsetInCU: 0x1E00D, offset: 0x1E00D, size: 0x8, addend: 0x0, symName: __ZNSt3__116__non_trivial_ifILb1ENS_9allocatorIiEEEC2B8ue170006Ev, symObjAddr: 0xBD50, symBinAddr: 0x10000C6AC, symSize: 0x14 }
  - { offsetInCU: 0x1E037, offset: 0x1E037, size: 0x8, addend: 0x0, symName: __ZNSt3__128__exception_guard_exceptionsINS_6vectorIiNS_9allocatorIiEEE16__destroy_vectorEEC1B8ue170006ES5_, symObjAddr: 0xBD64, symBinAddr: 0x10000C6C0, symSize: 0x34 }
  - { offsetInCU: 0x1E06F, offset: 0x1E06F, size: 0x8, addend: 0x0, symName: __ZNSt3__128__exception_guard_exceptionsINS_6vectorIiNS_9allocatorIiEEE16__destroy_vectorEEC2B8ue170006ES5_, symObjAddr: 0xBD98, symBinAddr: 0x10000C6F4, symSize: 0x24 }
  - { offsetInCU: 0x1E0A7, offset: 0x1E0A7, size: 0x8, addend: 0x0, symName: __ZNSt3__16vectorIiNS_9allocatorIiEEE16__destroy_vectorC2B8ue170006ERS3_, symObjAddr: 0xBDBC, symBinAddr: 0x10000C718, symSize: 0x20 }
  - { offsetInCU: 0x1E0E0, offset: 0x1E0E0, size: 0x8, addend: 0x0, symName: __ZNKSt3__16vectorIiNS_9allocatorIiEEE8max_sizeEv, symObjAddr: 0xBDDC, symBinAddr: 0x10000C738, symSize: 0x60 }
  - { offsetInCU: 0x1E108, offset: 0x1E108, size: 0x8, addend: 0x0, symName: __ZNKSt3__16vectorIiNS_9allocatorIiEEE20__throw_length_errorB8ue170006Ev, symObjAddr: 0xBE3C, symBinAddr: 0x10000C798, symSize: 0x1C }
  - { offsetInCU: 0x1E12E, offset: 0x1E12E, size: 0x8, addend: 0x0, symName: __ZNSt3__16vectorIiNS_9allocatorIiEEE7__allocB8ue170006Ev, symObjAddr: 0xBE98, symBinAddr: 0x10000C7F4, symSize: 0x28 }
  - { offsetInCU: 0x1E154, offset: 0x1E154, size: 0x8, addend: 0x0, symName: __ZNSt3__16vectorIiNS_9allocatorIiEEE9__end_capB8ue170006Ev, symObjAddr: 0xBEC0, symBinAddr: 0x10000C81C, symSize: 0x28 }
  - { offsetInCU: 0x1E17A, offset: 0x1E17A, size: 0x8, addend: 0x0, symName: __ZNKSt3__16vectorIiNS_9allocatorIiEEE14__annotate_newB8ue170006Em, symObjAddr: 0xBEE8, symBinAddr: 0x10000C844, symSize: 0xAC }
  - { offsetInCU: 0x1E1B9, offset: 0x1E1B9, size: 0x8, addend: 0x0, symName: __ZNSt3__116allocator_traitsINS_9allocatorIiEEE8max_sizeB8ue170006IS2_vEEmRKS2_, symObjAddr: 0xBF94, symBinAddr: 0x10000C8F0, symSize: 0x24 }
  - { offsetInCU: 0x1E1E7, offset: 0x1E1E7, size: 0x8, addend: 0x0, symName: __ZNKSt3__16vectorIiNS_9allocatorIiEEE7__allocB8ue170006Ev, symObjAddr: 0xBFB8, symBinAddr: 0x10000C914, symSize: 0x28 }
  - { offsetInCU: 0x1E20D, offset: 0x1E20D, size: 0x8, addend: 0x0, symName: __ZNKSt3__19allocatorIiE8max_sizeB8ue170006Ev, symObjAddr: 0xBFE0, symBinAddr: 0x10000C93C, symSize: 0x14 }
  - { offsetInCU: 0x1E233, offset: 0x1E233, size: 0x8, addend: 0x0, symName: __ZNKSt3__117__compressed_pairIPiNS_9allocatorIiEEE6secondB8ue170006Ev, symObjAddr: 0xBFF4, symBinAddr: 0x10000C950, symSize: 0x24 }
  - { offsetInCU: 0x1E259, offset: 0x1E259, size: 0x8, addend: 0x0, symName: __ZNKSt3__122__compressed_pair_elemINS_9allocatorIiEELi1ELb1EE5__getB8ue170006Ev, symObjAddr: 0xC018, symBinAddr: 0x10000C974, symSize: 0x14 }
  - { offsetInCU: 0x1E27F, offset: 0x1E27F, size: 0x8, addend: 0x0, symName: __ZNSt3__19allocatorIiE8allocateB8ue170006Em, symObjAddr: 0xC02C, symBinAddr: 0x10000C988, symSize: 0x58 }
  - { offsetInCU: 0x1E2B3, offset: 0x1E2B3, size: 0x8, addend: 0x0, symName: __ZNSt3__117__compressed_pairIPiNS_9allocatorIiEEE6secondB8ue170006Ev, symObjAddr: 0xC084, symBinAddr: 0x10000C9E0, symSize: 0x24 }
  - { offsetInCU: 0x1E2D9, offset: 0x1E2D9, size: 0x8, addend: 0x0, symName: __ZNSt3__122__compressed_pair_elemINS_9allocatorIiEELi1ELb1EE5__getB8ue170006Ev, symObjAddr: 0xC0A8, symBinAddr: 0x10000CA04, symSize: 0x14 }
  - { offsetInCU: 0x1E2FF, offset: 0x1E2FF, size: 0x8, addend: 0x0, symName: __ZNSt3__117__compressed_pairIPiNS_9allocatorIiEEE5firstB8ue170006Ev, symObjAddr: 0xC0BC, symBinAddr: 0x10000CA18, symSize: 0x24 }
  - { offsetInCU: 0x1E325, offset: 0x1E325, size: 0x8, addend: 0x0, symName: __ZNSt3__122__compressed_pair_elemIPiLi0ELb0EE5__getB8ue170006Ev, symObjAddr: 0xC0E0, symBinAddr: 0x10000CA3C, symSize: 0x14 }
  - { offsetInCU: 0x1E34B, offset: 0x1E34B, size: 0x8, addend: 0x0, symName: __ZNKSt3__16vectorIiNS_9allocatorIiEEE31__annotate_contiguous_containerB8ue170006EPKvS5_S5_S5_, symObjAddr: 0xC0F4, symBinAddr: 0x10000CA50, symSize: 0x20 }
  - { offsetInCU: 0x1E39D, offset: 0x1E39D, size: 0x8, addend: 0x0, symName: __ZNKSt3__16vectorIiNS_9allocatorIiEEE4dataB8ue170006Ev, symObjAddr: 0xC114, symBinAddr: 0x10000CA70, symSize: 0x28 }
  - { offsetInCU: 0x1E3C3, offset: 0x1E3C3, size: 0x8, addend: 0x0, symName: __ZNKSt3__16vectorIiNS_9allocatorIiEEE8capacityB8ue170006Ev, symObjAddr: 0xC13C, symBinAddr: 0x10000CA98, symSize: 0x40 }
  - { offsetInCU: 0x1E3E9, offset: 0x1E3E9, size: 0x8, addend: 0x0, symName: __ZNKSt3__16vectorIiNS_9allocatorIiEEE9__end_capB8ue170006Ev, symObjAddr: 0xC190, symBinAddr: 0x10000CAEC, symSize: 0x28 }
  - { offsetInCU: 0x1E40F, offset: 0x1E40F, size: 0x8, addend: 0x0, symName: __ZNKSt3__117__compressed_pairIPiNS_9allocatorIiEEE5firstB8ue170006Ev, symObjAddr: 0xC1B8, symBinAddr: 0x10000CB14, symSize: 0x24 }
  - { offsetInCU: 0x1E435, offset: 0x1E435, size: 0x8, addend: 0x0, symName: __ZNKSt3__122__compressed_pair_elemIPiLi0ELb0EE5__getB8ue170006Ev, symObjAddr: 0xC1DC, symBinAddr: 0x10000CB38, symSize: 0x14 }
  - { offsetInCU: 0x1E474, offset: 0x1E474, size: 0x8, addend: 0x0, symName: __ZNSt3__16vectorIiNS_9allocatorIiEEE21_ConstructTransactionC1B8ue170006ERS3_m, symObjAddr: 0xC1F0, symBinAddr: 0x10000CB4C, symSize: 0x3C }
  - { offsetInCU: 0x1E4BC, offset: 0x1E4BC, size: 0x8, addend: 0x0, symName: __ZNSt3__116allocator_traitsINS_9allocatorIiEEE9constructB8ue170006IiJRKiEvEEvRS2_PT_DpOT0_, symObjAddr: 0xC22C, symBinAddr: 0x10000CB88, symSize: 0x34 }
  - { offsetInCU: 0x1E513, offset: 0x1E513, size: 0x8, addend: 0x0, symName: __ZNSt3__16vectorIiNS_9allocatorIiEEE21_ConstructTransactionD1B8ue170006Ev, symObjAddr: 0xC260, symBinAddr: 0x10000CBBC, symSize: 0x2C }
  - { offsetInCU: 0x1E53D, offset: 0x1E53D, size: 0x8, addend: 0x0, symName: __ZNSt3__16vectorIiNS_9allocatorIiEEE21_ConstructTransactionC2B8ue170006ERS3_m, symObjAddr: 0xC28C, symBinAddr: 0x10000CBE8, symSize: 0x44 }
  - { offsetInCU: 0x1E585, offset: 0x1E585, size: 0x8, addend: 0x0, symName: __ZNSt3__19allocatorIiE9constructB8ue170006IiJRKiEEEvPT_DpOT0_, symObjAddr: 0xC2D0, symBinAddr: 0x10000CC2C, symSize: 0x28 }
  - { offsetInCU: 0x1E5DB, offset: 0x1E5DB, size: 0x8, addend: 0x0, symName: __ZNSt3__16vectorIiNS_9allocatorIiEEE21_ConstructTransactionD2B8ue170006Ev, symObjAddr: 0xC2F8, symBinAddr: 0x10000CC54, symSize: 0x20 }
  - { offsetInCU: 0x1E605, offset: 0x1E605, size: 0x8, addend: 0x0, symName: __ZNSt3__128__exception_guard_exceptionsINS_6vectorIiNS_9allocatorIiEEE16__destroy_vectorEED2B8ue170006Ev, symObjAddr: 0xC318, symBinAddr: 0x10000CC74, symSize: 0x50 }
  - { offsetInCU: 0x1E62F, offset: 0x1E62F, size: 0x8, addend: 0x0, symName: __ZNSt3__16vectorIiNS_9allocatorIiEEE16__destroy_vectorclB8ue170006Ev, symObjAddr: 0xC368, symBinAddr: 0x10000CCC4, symSize: 0x90 }
  - { offsetInCU: 0x1E655, offset: 0x1E655, size: 0x8, addend: 0x0, symName: __ZNSt3__16vectorIiNS_9allocatorIiEEE7__clearB8ue170006Ev, symObjAddr: 0xC3F8, symBinAddr: 0x10000CD54, symSize: 0x28 }
  - { offsetInCU: 0x1E67B, offset: 0x1E67B, size: 0x8, addend: 0x0, symName: __ZNKSt3__16vectorIiNS_9allocatorIiEEE17__annotate_deleteB8ue170006Ev, symObjAddr: 0xC420, symBinAddr: 0x10000CD7C, symSize: 0xB8 }
  - { offsetInCU: 0x1E6A1, offset: 0x1E6A1, size: 0x8, addend: 0x0, symName: __ZNSt3__116allocator_traitsINS_9allocatorIiEEE10deallocateB8ue170006ERS2_Pim, symObjAddr: 0xC4D8, symBinAddr: 0x10000CE34, symSize: 0x34 }
  - { offsetInCU: 0x1E6E3, offset: 0x1E6E3, size: 0x8, addend: 0x0, symName: __ZNSt3__16vectorIiNS_9allocatorIiEEE22__base_destruct_at_endB8ue170006EPi, symObjAddr: 0xC50C, symBinAddr: 0x10000CE68, symSize: 0x8C }
  - { offsetInCU: 0x1E727, offset: 0x1E727, size: 0x8, addend: 0x0, symName: __ZNSt3__116allocator_traitsINS_9allocatorIiEEE7destroyB8ue170006IivEEvRS2_PT_, symObjAddr: 0xC598, symBinAddr: 0x10000CEF4, symSize: 0x2C }
  - { offsetInCU: 0x1E764, offset: 0x1E764, size: 0x8, addend: 0x0, symName: __ZNSt3__19allocatorIiE7destroyB8ue170006EPi, symObjAddr: 0xC5C4, symBinAddr: 0x10000CF20, symSize: 0x14 }
  - { offsetInCU: 0x1E798, offset: 0x1E798, size: 0x8, addend: 0x0, symName: __ZNKSt3__16vectorIiNS_9allocatorIiEEE4sizeB8ue170006Ev, symObjAddr: 0xC5D8, symBinAddr: 0x10000CF34, symSize: 0x28 }
  - { offsetInCU: 0x1E7BE, offset: 0x1E7BE, size: 0x8, addend: 0x0, symName: __ZNSt3__19allocatorIiE10deallocateB8ue170006EPim, symObjAddr: 0xC600, symBinAddr: 0x10000CF5C, symSize: 0x40 }
  - { offsetInCU: 0x1E800, offset: 0x1E800, size: 0x8, addend: 0x0, symName: __ZNSt3__16vectorIiNS_9allocatorIiEEED2B8ue170006Ev, symObjAddr: 0xC640, symBinAddr: 0x10000CF9C, symSize: 0x40 }
  - { offsetInCU: 0x1E82A, offset: 0x1E82A, size: 0x8, addend: 0x0, symName: __ZNSt3__16vectorINS0_IiNS_9allocatorIiEEEENS1_IS3_EEEC2EmRKS3_, symObjAddr: 0xC680, symBinAddr: 0x10000CFDC, symSize: 0xDC }
  - { offsetInCU: 0x1E88A, offset: 0x1E88A, size: 0x8, addend: 0x0, symName: __ZNSt3__117__compressed_pairIPNS_6vectorIiNS_9allocatorIiEEEENS2_IS4_EEEC1B8ue170006IDnNS_18__default_init_tagEEEOT_OT0_, symObjAddr: 0xC75C, symBinAddr: 0x10000D0B8, symSize: 0x3C }
  - { offsetInCU: 0x1E8E2, offset: 0x1E8E2, size: 0x8, addend: 0x0, symName: __ZNSt3__16vectorINS0_IiNS_9allocatorIiEEEENS1_IS3_EEE16__destroy_vectorC1B8ue170006ERS5_, symObjAddr: 0xC7D8, symBinAddr: 0x10000D134, symSize: 0x34 }
  - { offsetInCU: 0x1E91B, offset: 0x1E91B, size: 0x8, addend: 0x0, symName: __ZNSt3__16vectorINS0_IiNS_9allocatorIiEEEENS1_IS3_EEE11__vallocateB8ue170006Em, symObjAddr: 0xC80C, symBinAddr: 0x10000D168, symSize: 0xB4 }
  - { offsetInCU: 0x1E95F, offset: 0x1E95F, size: 0x8, addend: 0x0, symName: __ZNSt3__16vectorINS0_IiNS_9allocatorIiEEEENS1_IS3_EEE18__construct_at_endEmRKS3_, symObjAddr: 0xC8C0, symBinAddr: 0x10000D21C, symSize: 0xD0 }
  - { offsetInCU: 0x1E9E0, offset: 0x1E9E0, size: 0x8, addend: 0x0, symName: __ZNSt3__128__exception_guard_exceptionsINS_6vectorINS1_IiNS_9allocatorIiEEEENS2_IS4_EEE16__destroy_vectorEE10__completeB8ue170006Ev, symObjAddr: 0xC990, symBinAddr: 0x10000D2EC, symSize: 0x1C }
  - { offsetInCU: 0x1EA06, offset: 0x1EA06, size: 0x8, addend: 0x0, symName: __ZNSt3__128__exception_guard_exceptionsINS_6vectorINS1_IiNS_9allocatorIiEEEENS2_IS4_EEE16__destroy_vectorEED1B8ue170006Ev, symObjAddr: 0xC9AC, symBinAddr: 0x10000D308, symSize: 0x2C }
  - { offsetInCU: 0x1EA30, offset: 0x1EA30, size: 0x8, addend: 0x0, symName: __ZNSt3__117__compressed_pairIPNS_6vectorIiNS_9allocatorIiEEEENS2_IS4_EEEC2B8ue170006IDnNS_18__default_init_tagEEEOT_OT0_, symObjAddr: 0xC9D8, symBinAddr: 0x10000D334, symSize: 0x40 }
  - { offsetInCU: 0x1EA88, offset: 0x1EA88, size: 0x8, addend: 0x0, symName: __ZNSt3__122__compressed_pair_elemIPNS_6vectorIiNS_9allocatorIiEEEELi0ELb0EEC2B8ue170006IDnvEEOT_, symObjAddr: 0xCA18, symBinAddr: 0x10000D374, symSize: 0x1C }
  - { offsetInCU: 0x1EACA, offset: 0x1EACA, size: 0x8, addend: 0x0, symName: __ZNSt3__122__compressed_pair_elemINS_9allocatorINS_6vectorIiNS1_IiEEEEEELi1ELb1EEC2B8ue170006ENS_18__default_init_tagE, symObjAddr: 0xCA34, symBinAddr: 0x10000D390, symSize: 0x2C }
  - { offsetInCU: 0x1EAFE, offset: 0x1EAFE, size: 0x8, addend: 0x0, symName: __ZNSt3__19allocatorINS_6vectorIiNS0_IiEEEEEC2B8ue170006Ev, symObjAddr: 0xCA60, symBinAddr: 0x10000D3BC, symSize: 0x2C }
  - { offsetInCU: 0x1EB28, offset: 0x1EB28, size: 0x8, addend: 0x0, symName: __ZNSt3__116__non_trivial_ifILb1ENS_9allocatorINS_6vectorIiNS1_IiEEEEEEEC2B8ue170006Ev, symObjAddr: 0xCA8C, symBinAddr: 0x10000D3E8, symSize: 0x14 }
  - { offsetInCU: 0x1EB52, offset: 0x1EB52, size: 0x8, addend: 0x0, symName: __ZNSt3__128__exception_guard_exceptionsINS_6vectorINS1_IiNS_9allocatorIiEEEENS2_IS4_EEE16__destroy_vectorEEC1B8ue170006ES7_, symObjAddr: 0xCAA0, symBinAddr: 0x10000D3FC, symSize: 0x34 }
  - { offsetInCU: 0x1EB8A, offset: 0x1EB8A, size: 0x8, addend: 0x0, symName: __ZNSt3__128__exception_guard_exceptionsINS_6vectorINS1_IiNS_9allocatorIiEEEENS2_IS4_EEE16__destroy_vectorEEC2B8ue170006ES7_, symObjAddr: 0xCAD4, symBinAddr: 0x10000D430, symSize: 0x24 }
  - { offsetInCU: 0x1EBC2, offset: 0x1EBC2, size: 0x8, addend: 0x0, symName: __ZNSt3__16vectorINS0_IiNS_9allocatorIiEEEENS1_IS3_EEE16__destroy_vectorC2B8ue170006ERS5_, symObjAddr: 0xCAF8, symBinAddr: 0x10000D454, symSize: 0x20 }
  - { offsetInCU: 0x1EBFB, offset: 0x1EBFB, size: 0x8, addend: 0x0, symName: __ZNKSt3__16vectorINS0_IiNS_9allocatorIiEEEENS1_IS3_EEE8max_sizeEv, symObjAddr: 0xCB18, symBinAddr: 0x10000D474, symSize: 0x60 }
  - { offsetInCU: 0x1EC23, offset: 0x1EC23, size: 0x8, addend: 0x0, symName: __ZNKSt3__16vectorINS0_IiNS_9allocatorIiEEEENS1_IS3_EEE20__throw_length_errorB8ue170006Ev, symObjAddr: 0xCB78, symBinAddr: 0x10000D4D4, symSize: 0x1C }
  - { offsetInCU: 0x1EC49, offset: 0x1EC49, size: 0x8, addend: 0x0, symName: __ZNSt3__16vectorINS0_IiNS_9allocatorIiEEEENS1_IS3_EEE7__allocB8ue170006Ev, symObjAddr: 0xCBD4, symBinAddr: 0x10000D530, symSize: 0x28 }
  - { offsetInCU: 0x1EC6F, offset: 0x1EC6F, size: 0x8, addend: 0x0, symName: __ZNSt3__16vectorINS0_IiNS_9allocatorIiEEEENS1_IS3_EEE9__end_capB8ue170006Ev, symObjAddr: 0xCBFC, symBinAddr: 0x10000D558, symSize: 0x28 }
  - { offsetInCU: 0x1EC95, offset: 0x1EC95, size: 0x8, addend: 0x0, symName: __ZNKSt3__16vectorINS0_IiNS_9allocatorIiEEEENS1_IS3_EEE14__annotate_newB8ue170006Em, symObjAddr: 0xCC24, symBinAddr: 0x10000D580, symSize: 0xC8 }
  - { offsetInCU: 0x1ECD4, offset: 0x1ECD4, size: 0x8, addend: 0x0, symName: __ZNSt3__116allocator_traitsINS_9allocatorINS_6vectorIiNS1_IiEEEEEEE8max_sizeB8ue170006IS5_vEEmRKS5_, symObjAddr: 0xCCEC, symBinAddr: 0x10000D648, symSize: 0x24 }
  - { offsetInCU: 0x1ED02, offset: 0x1ED02, size: 0x8, addend: 0x0, symName: __ZNKSt3__16vectorINS0_IiNS_9allocatorIiEEEENS1_IS3_EEE7__allocB8ue170006Ev, symObjAddr: 0xCD10, symBinAddr: 0x10000D66C, symSize: 0x28 }
  - { offsetInCU: 0x1ED28, offset: 0x1ED28, size: 0x8, addend: 0x0, symName: __ZNKSt3__19allocatorINS_6vectorIiNS0_IiEEEEE8max_sizeB8ue170006Ev, symObjAddr: 0xCD38, symBinAddr: 0x10000D694, symSize: 0x18 }
  - { offsetInCU: 0x1ED4E, offset: 0x1ED4E, size: 0x8, addend: 0x0, symName: __ZNKSt3__117__compressed_pairIPNS_6vectorIiNS_9allocatorIiEEEENS2_IS4_EEE6secondB8ue170006Ev, symObjAddr: 0xCD50, symBinAddr: 0x10000D6AC, symSize: 0x24 }
  - { offsetInCU: 0x1ED74, offset: 0x1ED74, size: 0x8, addend: 0x0, symName: __ZNKSt3__122__compressed_pair_elemINS_9allocatorINS_6vectorIiNS1_IiEEEEEELi1ELb1EE5__getB8ue170006Ev, symObjAddr: 0xCD74, symBinAddr: 0x10000D6D0, symSize: 0x14 }
  - { offsetInCU: 0x1ED9A, offset: 0x1ED9A, size: 0x8, addend: 0x0, symName: __ZNSt3__19allocatorINS_6vectorIiNS0_IiEEEEE8allocateB8ue170006Em, symObjAddr: 0xCD88, symBinAddr: 0x10000D6E4, symSize: 0x5C }
  - { offsetInCU: 0x1EDCE, offset: 0x1EDCE, size: 0x8, addend: 0x0, symName: __ZNSt3__117__compressed_pairIPNS_6vectorIiNS_9allocatorIiEEEENS2_IS4_EEE6secondB8ue170006Ev, symObjAddr: 0xCDE4, symBinAddr: 0x10000D740, symSize: 0x24 }
  - { offsetInCU: 0x1EDF4, offset: 0x1EDF4, size: 0x8, addend: 0x0, symName: __ZNSt3__122__compressed_pair_elemINS_9allocatorINS_6vectorIiNS1_IiEEEEEELi1ELb1EE5__getB8ue170006Ev, symObjAddr: 0xCE08, symBinAddr: 0x10000D764, symSize: 0x14 }
  - { offsetInCU: 0x1EE1A, offset: 0x1EE1A, size: 0x8, addend: 0x0, symName: __ZNSt3__117__compressed_pairIPNS_6vectorIiNS_9allocatorIiEEEENS2_IS4_EEE5firstB8ue170006Ev, symObjAddr: 0xCE1C, symBinAddr: 0x10000D778, symSize: 0x24 }
  - { offsetInCU: 0x1EE40, offset: 0x1EE40, size: 0x8, addend: 0x0, symName: __ZNSt3__122__compressed_pair_elemIPNS_6vectorIiNS_9allocatorIiEEEELi0ELb0EE5__getB8ue170006Ev, symObjAddr: 0xCE40, symBinAddr: 0x10000D79C, symSize: 0x14 }
  - { offsetInCU: 0x1EE66, offset: 0x1EE66, size: 0x8, addend: 0x0, symName: __ZNKSt3__16vectorINS0_IiNS_9allocatorIiEEEENS1_IS3_EEE31__annotate_contiguous_containerB8ue170006EPKvS7_S7_S7_, symObjAddr: 0xCE54, symBinAddr: 0x10000D7B0, symSize: 0x20 }
  - { offsetInCU: 0x1EEB8, offset: 0x1EEB8, size: 0x8, addend: 0x0, symName: __ZNKSt3__16vectorINS0_IiNS_9allocatorIiEEEENS1_IS3_EEE4dataB8ue170006Ev, symObjAddr: 0xCE74, symBinAddr: 0x10000D7D0, symSize: 0x28 }
  - { offsetInCU: 0x1EEDE, offset: 0x1EEDE, size: 0x8, addend: 0x0, symName: __ZNKSt3__16vectorINS0_IiNS_9allocatorIiEEEENS1_IS3_EEE8capacityB8ue170006Ev, symObjAddr: 0xCE9C, symBinAddr: 0x10000D7F8, symSize: 0x40 }
  - { offsetInCU: 0x1EF04, offset: 0x1EF04, size: 0x8, addend: 0x0, symName: __ZNKSt3__16vectorINS0_IiNS_9allocatorIiEEEENS1_IS3_EEE9__end_capB8ue170006Ev, symObjAddr: 0xCEF0, symBinAddr: 0x10000D84C, symSize: 0x28 }
  - { offsetInCU: 0x1EF2A, offset: 0x1EF2A, size: 0x8, addend: 0x0, symName: __ZNKSt3__117__compressed_pairIPNS_6vectorIiNS_9allocatorIiEEEENS2_IS4_EEE5firstB8ue170006Ev, symObjAddr: 0xCF18, symBinAddr: 0x10000D874, symSize: 0x24 }
  - { offsetInCU: 0x1EF50, offset: 0x1EF50, size: 0x8, addend: 0x0, symName: __ZNKSt3__122__compressed_pair_elemIPNS_6vectorIiNS_9allocatorIiEEEELi0ELb0EE5__getB8ue170006Ev, symObjAddr: 0xCF3C, symBinAddr: 0x10000D898, symSize: 0x14 }
  - { offsetInCU: 0x1EF8F, offset: 0x1EF8F, size: 0x8, addend: 0x0, symName: __ZNSt3__16vectorINS0_IiNS_9allocatorIiEEEENS1_IS3_EEE21_ConstructTransactionC1B8ue170006ERS5_m, symObjAddr: 0xCF50, symBinAddr: 0x10000D8AC, symSize: 0x3C }
  - { offsetInCU: 0x1EFD7, offset: 0x1EFD7, size: 0x8, addend: 0x0, symName: __ZNSt3__116allocator_traitsINS_9allocatorINS_6vectorIiNS1_IiEEEEEEE9constructB8ue170006IS4_JRKS4_EvEEvRS5_PT_DpOT0_, symObjAddr: 0xCF8C, symBinAddr: 0x10000D8E8, symSize: 0x34 }
  - { offsetInCU: 0x1F02E, offset: 0x1F02E, size: 0x8, addend: 0x0, symName: __ZNSt3__16vectorINS0_IiNS_9allocatorIiEEEENS1_IS3_EEE21_ConstructTransactionD1B8ue170006Ev, symObjAddr: 0xCFC0, symBinAddr: 0x10000D91C, symSize: 0x2C }
  - { offsetInCU: 0x1F058, offset: 0x1F058, size: 0x8, addend: 0x0, symName: __ZNSt3__16vectorINS0_IiNS_9allocatorIiEEEENS1_IS3_EEE21_ConstructTransactionC2B8ue170006ERS5_m, symObjAddr: 0xCFEC, symBinAddr: 0x10000D948, symSize: 0x4C }
  - { offsetInCU: 0x1F0A0, offset: 0x1F0A0, size: 0x8, addend: 0x0, symName: __ZNSt3__19allocatorINS_6vectorIiNS0_IiEEEEE9constructB8ue170006IS3_JRKS3_EEEvPT_DpOT0_, symObjAddr: 0xD038, symBinAddr: 0x10000D994, symSize: 0x30 }
  - { offsetInCU: 0x1F0F6, offset: 0x1F0F6, size: 0x8, addend: 0x0, symName: __ZNSt3__16vectorIiNS_9allocatorIiEEEC1ERKS3_, symObjAddr: 0xD068, symBinAddr: 0x10000D9C4, symSize: 0x34 }
  - { offsetInCU: 0x1F131, offset: 0x1F131, size: 0x8, addend: 0x0, symName: __ZNSt3__16vectorIiNS_9allocatorIiEEEC2ERKS3_, symObjAddr: 0xD09C, symBinAddr: 0x10000D9F8, symSize: 0x94 }
  - { offsetInCU: 0x1F16C, offset: 0x1F16C, size: 0x8, addend: 0x0, symName: __ZNSt3__116allocator_traitsINS_9allocatorIiEEE37select_on_container_copy_constructionB8ue170006IS2_vvEES2_RKS2_, symObjAddr: 0xD130, symBinAddr: 0x10000DA8C, symSize: 0x10 }
  - { offsetInCU: 0x1F1A0, offset: 0x1F1A0, size: 0x8, addend: 0x0, symName: __ZNSt3__117__compressed_pairIPiNS_9allocatorIiEEEC1B8ue170006IDnS3_EEOT_OT0_, symObjAddr: 0xD140, symBinAddr: 0x10000DA9C, symSize: 0x3C }
  - { offsetInCU: 0x1F1F8, offset: 0x1F1F8, size: 0x8, addend: 0x0, symName: __ZNSt3__16vectorIiNS_9allocatorIiEEE16__init_with_sizeB8ue170006IPiS5_EEvT_T0_m, symObjAddr: 0xD17C, symBinAddr: 0x10000DAD8, symSize: 0xB8 }
  - { offsetInCU: 0x1F26C, offset: 0x1F26C, size: 0x8, addend: 0x0, symName: __ZNSt3__117__compressed_pairIPiNS_9allocatorIiEEEC2B8ue170006IDnS3_EEOT_OT0_, symObjAddr: 0xD234, symBinAddr: 0x10000DB90, symSize: 0x44 }
  - { offsetInCU: 0x1F2C4, offset: 0x1F2C4, size: 0x8, addend: 0x0, symName: __ZNSt3__122__compressed_pair_elemINS_9allocatorIiEELi1ELb1EEC2B8ue170006IS2_vEEOT_, symObjAddr: 0xD278, symBinAddr: 0x10000DBD4, symSize: 0x18 }
  - { offsetInCU: 0x1F306, offset: 0x1F306, size: 0x8, addend: 0x0, symName: __ZNSt3__16vectorIiNS_9allocatorIiEEE18__construct_at_endIPiS5_EEvT_T0_m, symObjAddr: 0xD290, symBinAddr: 0x10000DBEC, symSize: 0x8C }
  - { offsetInCU: 0x1F39A, offset: 0x1F39A, size: 0x8, addend: 0x0, symName: __ZNSt3__14pairIPiS1_EC1B8ue170006IS1_S1_LPv0EEEOT_OT0_, symObjAddr: 0xD4CC, symBinAddr: 0x10000DE28, symSize: 0x3C }
  - { offsetInCU: 0x1F3F8, offset: 0x1F3F8, size: 0x8, addend: 0x0, symName: __ZNSt3__14pairIPiS1_EC2B8ue170006IS1_S1_LPv0EEEOT_OT0_, symObjAddr: 0xD508, symBinAddr: 0x10000DE64, symSize: 0x34 }
  - { offsetInCU: 0x1F460, offset: 0x1F460, size: 0x8, addend: 0x0, symName: __ZNKSt3__114__copy_trivialclB8ue170006IiiLi0EEENS_4pairIPT_PT0_EES4_S4_S6_, symObjAddr: 0xD6B8, symBinAddr: 0x10000E014, symSize: 0x48 }
  - { offsetInCU: 0x1F4C8, offset: 0x1F4C8, size: 0x8, addend: 0x0, symName: __ZNSt3__14pairIPiS1_EC1B8ue170006IRS1_S1_LPv0EEEOT_OT0_, symObjAddr: 0xD848, symBinAddr: 0x10000E1A4, symSize: 0x3C }
  - { offsetInCU: 0x1F526, offset: 0x1F526, size: 0x8, addend: 0x0, symName: __ZNSt3__14pairIPiS1_EC2B8ue170006IRS1_S1_LPv0EEEOT_OT0_, symObjAddr: 0xD884, symBinAddr: 0x10000E1E0, symSize: 0x34 }
  - { offsetInCU: 0x1F584, offset: 0x1F584, size: 0x8, addend: 0x0, symName: __ZNSt3__118__unwrap_iter_implIPiLb1EE8__unwrapB8ue170006ES1_, symObjAddr: 0xD8B8, symBinAddr: 0x10000E214, symSize: 0x24 }
  - { offsetInCU: 0x1F5A7, offset: 0x1F5A7, size: 0x8, addend: 0x0, symName: __ZNSt3__118__unwrap_iter_implIPiLb1EE8__rewrapB8ue170006ES1_S1_, symObjAddr: 0xD8DC, symBinAddr: 0x10000E238, symSize: 0x50 }
  - { offsetInCU: 0x1F5D8, offset: 0x1F5D8, size: 0x8, addend: 0x0, symName: __ZNSt3__16vectorINS0_IiNS_9allocatorIiEEEENS1_IS3_EEE21_ConstructTransactionD2B8ue170006Ev, symObjAddr: 0xD92C, symBinAddr: 0x10000E288, symSize: 0x20 }
  - { offsetInCU: 0x1F602, offset: 0x1F602, size: 0x8, addend: 0x0, symName: __ZNSt3__128__exception_guard_exceptionsINS_6vectorINS1_IiNS_9allocatorIiEEEENS2_IS4_EEE16__destroy_vectorEED2B8ue170006Ev, symObjAddr: 0xD94C, symBinAddr: 0x10000E2A8, symSize: 0x50 }
  - { offsetInCU: 0x1F62C, offset: 0x1F62C, size: 0x8, addend: 0x0, symName: __ZNSt3__16vectorINS0_IiNS_9allocatorIiEEEENS1_IS3_EEE16__destroy_vectorclB8ue170006Ev, symObjAddr: 0xD99C, symBinAddr: 0x10000E2F8, symSize: 0x90 }
  - { offsetInCU: 0x1F652, offset: 0x1F652, size: 0x8, addend: 0x0, symName: __ZNSt3__16vectorINS0_IiNS_9allocatorIiEEEENS1_IS3_EEE7__clearB8ue170006Ev, symObjAddr: 0xDA2C, symBinAddr: 0x10000E388, symSize: 0x28 }
  - { offsetInCU: 0x1F678, offset: 0x1F678, size: 0x8, addend: 0x0, symName: __ZNKSt3__16vectorINS0_IiNS_9allocatorIiEEEENS1_IS3_EEE17__annotate_deleteB8ue170006Ev, symObjAddr: 0xDA54, symBinAddr: 0x10000E3B0, symSize: 0xD4 }
  - { offsetInCU: 0x1F69E, offset: 0x1F69E, size: 0x8, addend: 0x0, symName: __ZNSt3__116allocator_traitsINS_9allocatorINS_6vectorIiNS1_IiEEEEEEE10deallocateB8ue170006ERS5_PS4_m, symObjAddr: 0xDB28, symBinAddr: 0x10000E484, symSize: 0x34 }
  - { offsetInCU: 0x1F6E0, offset: 0x1F6E0, size: 0x8, addend: 0x0, symName: __ZNSt3__16vectorINS0_IiNS_9allocatorIiEEEENS1_IS3_EEE22__base_destruct_at_endB8ue170006EPS3_, symObjAddr: 0xDB5C, symBinAddr: 0x10000E4B8, symSize: 0x8C }
  - { offsetInCU: 0x1F724, offset: 0x1F724, size: 0x8, addend: 0x0, symName: __ZNSt3__116allocator_traitsINS_9allocatorINS_6vectorIiNS1_IiEEEEEEE7destroyB8ue170006IS4_vEEvRS5_PT_, symObjAddr: 0xDBE8, symBinAddr: 0x10000E544, symSize: 0x2C }
  - { offsetInCU: 0x1F761, offset: 0x1F761, size: 0x8, addend: 0x0, symName: __ZNSt3__19allocatorINS_6vectorIiNS0_IiEEEEE7destroyB8ue170006EPS3_, symObjAddr: 0xDC14, symBinAddr: 0x10000E570, symSize: 0x28 }
  - { offsetInCU: 0x1F795, offset: 0x1F795, size: 0x8, addend: 0x0, symName: __ZNKSt3__16vectorINS0_IiNS_9allocatorIiEEEENS1_IS3_EEE4sizeB8ue170006Ev, symObjAddr: 0xDC3C, symBinAddr: 0x10000E598, symSize: 0x28 }
  - { offsetInCU: 0x1F7BB, offset: 0x1F7BB, size: 0x8, addend: 0x0, symName: __ZNSt3__19allocatorINS_6vectorIiNS0_IiEEEEE10deallocateB8ue170006EPS3_m, symObjAddr: 0xDC64, symBinAddr: 0x10000E5C0, symSize: 0x44 }
  - { offsetInCU: 0x1F7FD, offset: 0x1F7FD, size: 0x8, addend: 0x0, symName: __ZNSt3__16vectorINS0_IiNS_9allocatorIiEEEENS1_IS3_EEED2B8ue170006Ev, symObjAddr: 0xDCA8, symBinAddr: 0x10000E604, symSize: 0x40 }
  - { offsetInCU: 0x1F827, offset: 0x1F827, size: 0x8, addend: 0x0, symName: __ZNSt3__16vectorINS0_INS0_IiNS_9allocatorIiEEEENS1_IS3_EEEENS1_IS5_EEEC2EmRKS5_, symObjAddr: 0xDCE8, symBinAddr: 0x10000E644, symSize: 0xDC }
  - { offsetInCU: 0x1F887, offset: 0x1F887, size: 0x8, addend: 0x0, symName: __ZNSt3__117__compressed_pairIPNS_6vectorINS1_IiNS_9allocatorIiEEEENS2_IS4_EEEENS2_IS6_EEEC1B8ue170006IDnNS_18__default_init_tagEEEOT_OT0_, symObjAddr: 0xDDC4, symBinAddr: 0x10000E720, symSize: 0x3C }
  - { offsetInCU: 0x1F8DF, offset: 0x1F8DF, size: 0x8, addend: 0x0, symName: __ZNSt3__16vectorINS0_INS0_IiNS_9allocatorIiEEEENS1_IS3_EEEENS1_IS5_EEE16__destroy_vectorC1B8ue170006ERS7_, symObjAddr: 0xDE40, symBinAddr: 0x10000E79C, symSize: 0x34 }
  - { offsetInCU: 0x1F918, offset: 0x1F918, size: 0x8, addend: 0x0, symName: __ZNSt3__16vectorINS0_INS0_IiNS_9allocatorIiEEEENS1_IS3_EEEENS1_IS5_EEE11__vallocateB8ue170006Em, symObjAddr: 0xDE74, symBinAddr: 0x10000E7D0, symSize: 0xB4 }
  - { offsetInCU: 0x1F95C, offset: 0x1F95C, size: 0x8, addend: 0x0, symName: __ZNSt3__16vectorINS0_INS0_IiNS_9allocatorIiEEEENS1_IS3_EEEENS1_IS5_EEE18__construct_at_endEmRKS5_, symObjAddr: 0xDF28, symBinAddr: 0x10000E884, symSize: 0xD0 }
  - { offsetInCU: 0x1F9DD, offset: 0x1F9DD, size: 0x8, addend: 0x0, symName: __ZNSt3__128__exception_guard_exceptionsINS_6vectorINS1_INS1_IiNS_9allocatorIiEEEENS2_IS4_EEEENS2_IS6_EEE16__destroy_vectorEE10__completeB8ue170006Ev, symObjAddr: 0xDFF8, symBinAddr: 0x10000E954, symSize: 0x1C }
  - { offsetInCU: 0x1FA03, offset: 0x1FA03, size: 0x8, addend: 0x0, symName: __ZNSt3__128__exception_guard_exceptionsINS_6vectorINS1_INS1_IiNS_9allocatorIiEEEENS2_IS4_EEEENS2_IS6_EEE16__destroy_vectorEED1B8ue170006Ev, symObjAddr: 0xE014, symBinAddr: 0x10000E970, symSize: 0x2C }
  - { offsetInCU: 0x1FA2D, offset: 0x1FA2D, size: 0x8, addend: 0x0, symName: __ZNSt3__117__compressed_pairIPNS_6vectorINS1_IiNS_9allocatorIiEEEENS2_IS4_EEEENS2_IS6_EEEC2B8ue170006IDnNS_18__default_init_tagEEEOT_OT0_, symObjAddr: 0xE040, symBinAddr: 0x10000E99C, symSize: 0x40 }
  - { offsetInCU: 0x1FA85, offset: 0x1FA85, size: 0x8, addend: 0x0, symName: __ZNSt3__122__compressed_pair_elemIPNS_6vectorINS1_IiNS_9allocatorIiEEEENS2_IS4_EEEELi0ELb0EEC2B8ue170006IDnvEEOT_, symObjAddr: 0xE080, symBinAddr: 0x10000E9DC, symSize: 0x1C }
  - { offsetInCU: 0x1FAC7, offset: 0x1FAC7, size: 0x8, addend: 0x0, symName: __ZNSt3__122__compressed_pair_elemINS_9allocatorINS_6vectorINS2_IiNS1_IiEEEENS1_IS4_EEEEEELi1ELb1EEC2B8ue170006ENS_18__default_init_tagE, symObjAddr: 0xE09C, symBinAddr: 0x10000E9F8, symSize: 0x2C }
  - { offsetInCU: 0x1FAFB, offset: 0x1FAFB, size: 0x8, addend: 0x0, symName: __ZNSt3__19allocatorINS_6vectorINS1_IiNS0_IiEEEENS0_IS3_EEEEEC2B8ue170006Ev, symObjAddr: 0xE0C8, symBinAddr: 0x10000EA24, symSize: 0x2C }
  - { offsetInCU: 0x1FB25, offset: 0x1FB25, size: 0x8, addend: 0x0, symName: __ZNSt3__116__non_trivial_ifILb1ENS_9allocatorINS_6vectorINS2_IiNS1_IiEEEENS1_IS4_EEEEEEEC2B8ue170006Ev, symObjAddr: 0xE0F4, symBinAddr: 0x10000EA50, symSize: 0x14 }
  - { offsetInCU: 0x1FB4F, offset: 0x1FB4F, size: 0x8, addend: 0x0, symName: __ZNSt3__128__exception_guard_exceptionsINS_6vectorINS1_INS1_IiNS_9allocatorIiEEEENS2_IS4_EEEENS2_IS6_EEE16__destroy_vectorEEC1B8ue170006ES9_, symObjAddr: 0xE108, symBinAddr: 0x10000EA64, symSize: 0x34 }
  - { offsetInCU: 0x1FB87, offset: 0x1FB87, size: 0x8, addend: 0x0, symName: __ZNSt3__128__exception_guard_exceptionsINS_6vectorINS1_INS1_IiNS_9allocatorIiEEEENS2_IS4_EEEENS2_IS6_EEE16__destroy_vectorEEC2B8ue170006ES9_, symObjAddr: 0xE13C, symBinAddr: 0x10000EA98, symSize: 0x24 }
  - { offsetInCU: 0x1FBBF, offset: 0x1FBBF, size: 0x8, addend: 0x0, symName: __ZNSt3__16vectorINS0_INS0_IiNS_9allocatorIiEEEENS1_IS3_EEEENS1_IS5_EEE16__destroy_vectorC2B8ue170006ERS7_, symObjAddr: 0xE160, symBinAddr: 0x10000EABC, symSize: 0x20 }
  - { offsetInCU: 0x1FBF8, offset: 0x1FBF8, size: 0x8, addend: 0x0, symName: __ZNKSt3__16vectorINS0_INS0_IiNS_9allocatorIiEEEENS1_IS3_EEEENS1_IS5_EEE8max_sizeEv, symObjAddr: 0xE180, symBinAddr: 0x10000EADC, symSize: 0x60 }
  - { offsetInCU: 0x1FC20, offset: 0x1FC20, size: 0x8, addend: 0x0, symName: __ZNKSt3__16vectorINS0_INS0_IiNS_9allocatorIiEEEENS1_IS3_EEEENS1_IS5_EEE20__throw_length_errorB8ue170006Ev, symObjAddr: 0xE1E0, symBinAddr: 0x10000EB3C, symSize: 0x1C }
  - { offsetInCU: 0x1FC46, offset: 0x1FC46, size: 0x8, addend: 0x0, symName: __ZNSt3__16vectorINS0_INS0_IiNS_9allocatorIiEEEENS1_IS3_EEEENS1_IS5_EEE7__allocB8ue170006Ev, symObjAddr: 0xE23C, symBinAddr: 0x10000EB98, symSize: 0x28 }
  - { offsetInCU: 0x1FC6C, offset: 0x1FC6C, size: 0x8, addend: 0x0, symName: __ZNSt3__16vectorINS0_INS0_IiNS_9allocatorIiEEEENS1_IS3_EEEENS1_IS5_EEE9__end_capB8ue170006Ev, symObjAddr: 0xE264, symBinAddr: 0x10000EBC0, symSize: 0x28 }
  - { offsetInCU: 0x1FC92, offset: 0x1FC92, size: 0x8, addend: 0x0, symName: __ZNKSt3__16vectorINS0_INS0_IiNS_9allocatorIiEEEENS1_IS3_EEEENS1_IS5_EEE14__annotate_newB8ue170006Em, symObjAddr: 0xE28C, symBinAddr: 0x10000EBE8, symSize: 0xC8 }
  - { offsetInCU: 0x1FCD1, offset: 0x1FCD1, size: 0x8, addend: 0x0, symName: __ZNSt3__116allocator_traitsINS_9allocatorINS_6vectorINS2_IiNS1_IiEEEENS1_IS4_EEEEEEE8max_sizeB8ue170006IS7_vEEmRKS7_, symObjAddr: 0xE354, symBinAddr: 0x10000ECB0, symSize: 0x24 }
  - { offsetInCU: 0x1FCFF, offset: 0x1FCFF, size: 0x8, addend: 0x0, symName: __ZNKSt3__16vectorINS0_INS0_IiNS_9allocatorIiEEEENS1_IS3_EEEENS1_IS5_EEE7__allocB8ue170006Ev, symObjAddr: 0xE378, symBinAddr: 0x10000ECD4, symSize: 0x28 }
  - { offsetInCU: 0x1FD25, offset: 0x1FD25, size: 0x8, addend: 0x0, symName: __ZNKSt3__19allocatorINS_6vectorINS1_IiNS0_IiEEEENS0_IS3_EEEEE8max_sizeB8ue170006Ev, symObjAddr: 0xE3A0, symBinAddr: 0x10000ECFC, symSize: 0x18 }
  - { offsetInCU: 0x1FD4B, offset: 0x1FD4B, size: 0x8, addend: 0x0, symName: __ZNKSt3__117__compressed_pairIPNS_6vectorINS1_IiNS_9allocatorIiEEEENS2_IS4_EEEENS2_IS6_EEE6secondB8ue170006Ev, symObjAddr: 0xE3B8, symBinAddr: 0x10000ED14, symSize: 0x24 }
  - { offsetInCU: 0x1FD71, offset: 0x1FD71, size: 0x8, addend: 0x0, symName: __ZNKSt3__122__compressed_pair_elemINS_9allocatorINS_6vectorINS2_IiNS1_IiEEEENS1_IS4_EEEEEELi1ELb1EE5__getB8ue170006Ev, symObjAddr: 0xE3DC, symBinAddr: 0x10000ED38, symSize: 0x14 }
  - { offsetInCU: 0x1FD97, offset: 0x1FD97, size: 0x8, addend: 0x0, symName: __ZNSt3__19allocatorINS_6vectorINS1_IiNS0_IiEEEENS0_IS3_EEEEE8allocateB8ue170006Em, symObjAddr: 0xE3F0, symBinAddr: 0x10000ED4C, symSize: 0x5C }
  - { offsetInCU: 0x1FDCB, offset: 0x1FDCB, size: 0x8, addend: 0x0, symName: __ZNSt3__117__compressed_pairIPNS_6vectorINS1_IiNS_9allocatorIiEEEENS2_IS4_EEEENS2_IS6_EEE6secondB8ue170006Ev, symObjAddr: 0xE44C, symBinAddr: 0x10000EDA8, symSize: 0x24 }
  - { offsetInCU: 0x1FDF1, offset: 0x1FDF1, size: 0x8, addend: 0x0, symName: __ZNSt3__122__compressed_pair_elemINS_9allocatorINS_6vectorINS2_IiNS1_IiEEEENS1_IS4_EEEEEELi1ELb1EE5__getB8ue170006Ev, symObjAddr: 0xE470, symBinAddr: 0x10000EDCC, symSize: 0x14 }
  - { offsetInCU: 0x1FE17, offset: 0x1FE17, size: 0x8, addend: 0x0, symName: __ZNSt3__117__compressed_pairIPNS_6vectorINS1_IiNS_9allocatorIiEEEENS2_IS4_EEEENS2_IS6_EEE5firstB8ue170006Ev, symObjAddr: 0xE484, symBinAddr: 0x10000EDE0, symSize: 0x24 }
  - { offsetInCU: 0x1FE3D, offset: 0x1FE3D, size: 0x8, addend: 0x0, symName: __ZNSt3__122__compressed_pair_elemIPNS_6vectorINS1_IiNS_9allocatorIiEEEENS2_IS4_EEEELi0ELb0EE5__getB8ue170006Ev, symObjAddr: 0xE4A8, symBinAddr: 0x10000EE04, symSize: 0x14 }
  - { offsetInCU: 0x1FE63, offset: 0x1FE63, size: 0x8, addend: 0x0, symName: __ZNKSt3__16vectorINS0_INS0_IiNS_9allocatorIiEEEENS1_IS3_EEEENS1_IS5_EEE31__annotate_contiguous_containerB8ue170006EPKvS9_S9_S9_, symObjAddr: 0xE4BC, symBinAddr: 0x10000EE18, symSize: 0x20 }
  - { offsetInCU: 0x1FEB5, offset: 0x1FEB5, size: 0x8, addend: 0x0, symName: __ZNKSt3__16vectorINS0_INS0_IiNS_9allocatorIiEEEENS1_IS3_EEEENS1_IS5_EEE4dataB8ue170006Ev, symObjAddr: 0xE4DC, symBinAddr: 0x10000EE38, symSize: 0x28 }
  - { offsetInCU: 0x1FEDB, offset: 0x1FEDB, size: 0x8, addend: 0x0, symName: __ZNKSt3__16vectorINS0_INS0_IiNS_9allocatorIiEEEENS1_IS3_EEEENS1_IS5_EEE8capacityB8ue170006Ev, symObjAddr: 0xE504, symBinAddr: 0x10000EE60, symSize: 0x40 }
  - { offsetInCU: 0x1FF01, offset: 0x1FF01, size: 0x8, addend: 0x0, symName: __ZNKSt3__16vectorINS0_INS0_IiNS_9allocatorIiEEEENS1_IS3_EEEENS1_IS5_EEE9__end_capB8ue170006Ev, symObjAddr: 0xE558, symBinAddr: 0x10000EEB4, symSize: 0x28 }
  - { offsetInCU: 0x1FF27, offset: 0x1FF27, size: 0x8, addend: 0x0, symName: __ZNKSt3__117__compressed_pairIPNS_6vectorINS1_IiNS_9allocatorIiEEEENS2_IS4_EEEENS2_IS6_EEE5firstB8ue170006Ev, symObjAddr: 0xE580, symBinAddr: 0x10000EEDC, symSize: 0x24 }
  - { offsetInCU: 0x1FF4D, offset: 0x1FF4D, size: 0x8, addend: 0x0, symName: __ZNKSt3__122__compressed_pair_elemIPNS_6vectorINS1_IiNS_9allocatorIiEEEENS2_IS4_EEEELi0ELb0EE5__getB8ue170006Ev, symObjAddr: 0xE5A4, symBinAddr: 0x10000EF00, symSize: 0x14 }
  - { offsetInCU: 0x1FF8C, offset: 0x1FF8C, size: 0x8, addend: 0x0, symName: __ZNSt3__16vectorINS0_INS0_IiNS_9allocatorIiEEEENS1_IS3_EEEENS1_IS5_EEE21_ConstructTransactionC1B8ue170006ERS7_m, symObjAddr: 0xE5B8, symBinAddr: 0x10000EF14, symSize: 0x3C }
  - { offsetInCU: 0x1FFD4, offset: 0x1FFD4, size: 0x8, addend: 0x0, symName: __ZNSt3__116allocator_traitsINS_9allocatorINS_6vectorINS2_IiNS1_IiEEEENS1_IS4_EEEEEEE9constructB8ue170006IS6_JRKS6_EvEEvRS7_PT_DpOT0_, symObjAddr: 0xE5F4, symBinAddr: 0x10000EF50, symSize: 0x34 }
  - { offsetInCU: 0x2002B, offset: 0x2002B, size: 0x8, addend: 0x0, symName: __ZNSt3__16vectorINS0_INS0_IiNS_9allocatorIiEEEENS1_IS3_EEEENS1_IS5_EEE21_ConstructTransactionD1B8ue170006Ev, symObjAddr: 0xE628, symBinAddr: 0x10000EF84, symSize: 0x2C }
  - { offsetInCU: 0x20055, offset: 0x20055, size: 0x8, addend: 0x0, symName: __ZNSt3__16vectorINS0_INS0_IiNS_9allocatorIiEEEENS1_IS3_EEEENS1_IS5_EEE21_ConstructTransactionC2B8ue170006ERS7_m, symObjAddr: 0xE654, symBinAddr: 0x10000EFB0, symSize: 0x4C }
  - { offsetInCU: 0x2009D, offset: 0x2009D, size: 0x8, addend: 0x0, symName: __ZNSt3__19allocatorINS_6vectorINS1_IiNS0_IiEEEENS0_IS3_EEEEE9constructB8ue170006IS5_JRKS5_EEEvPT_DpOT0_, symObjAddr: 0xE6A0, symBinAddr: 0x10000EFFC, symSize: 0x30 }
  - { offsetInCU: 0x200F3, offset: 0x200F3, size: 0x8, addend: 0x0, symName: __ZNSt3__16vectorINS0_IiNS_9allocatorIiEEEENS1_IS3_EEEC1ERKS5_, symObjAddr: 0xE6D0, symBinAddr: 0x10000F02C, symSize: 0x34 }
  - { offsetInCU: 0x2012E, offset: 0x2012E, size: 0x8, addend: 0x0, symName: __ZNSt3__16vectorINS0_IiNS_9allocatorIiEEEENS1_IS3_EEEC2ERKS5_, symObjAddr: 0xE704, symBinAddr: 0x10000F060, symSize: 0x94 }
  - { offsetInCU: 0x20169, offset: 0x20169, size: 0x8, addend: 0x0, symName: __ZNSt3__116allocator_traitsINS_9allocatorINS_6vectorIiNS1_IiEEEEEEE37select_on_container_copy_constructionB8ue170006IS5_vvEES5_RKS5_, symObjAddr: 0xE798, symBinAddr: 0x10000F0F4, symSize: 0x10 }
  - { offsetInCU: 0x2019D, offset: 0x2019D, size: 0x8, addend: 0x0, symName: __ZNSt3__117__compressed_pairIPNS_6vectorIiNS_9allocatorIiEEEENS2_IS4_EEEC1B8ue170006IDnS6_EEOT_OT0_, symObjAddr: 0xE7A8, symBinAddr: 0x10000F104, symSize: 0x3C }
  - { offsetInCU: 0x201F5, offset: 0x201F5, size: 0x8, addend: 0x0, symName: __ZNSt3__16vectorINS0_IiNS_9allocatorIiEEEENS1_IS3_EEE16__init_with_sizeB8ue170006IPS3_S7_EEvT_T0_m, symObjAddr: 0xE7E4, symBinAddr: 0x10000F140, symSize: 0xB8 }
  - { offsetInCU: 0x20269, offset: 0x20269, size: 0x8, addend: 0x0, symName: __ZNSt3__117__compressed_pairIPNS_6vectorIiNS_9allocatorIiEEEENS2_IS4_EEEC2B8ue170006IDnS6_EEOT_OT0_, symObjAddr: 0xE89C, symBinAddr: 0x10000F1F8, symSize: 0x44 }
  - { offsetInCU: 0x202C1, offset: 0x202C1, size: 0x8, addend: 0x0, symName: __ZNSt3__122__compressed_pair_elemINS_9allocatorINS_6vectorIiNS1_IiEEEEEELi1ELb1EEC2B8ue170006IS5_vEEOT_, symObjAddr: 0xE8E0, symBinAddr: 0x10000F23C, symSize: 0x18 }
  - { offsetInCU: 0x20303, offset: 0x20303, size: 0x8, addend: 0x0, symName: __ZNSt3__16vectorINS0_IiNS_9allocatorIiEEEENS1_IS3_EEE18__construct_at_endIPS3_S7_EEvT_T0_m, symObjAddr: 0xE8F8, symBinAddr: 0x10000F254, symSize: 0x8C }
  - { offsetInCU: 0x20397, offset: 0x20397, size: 0x8, addend: 0x0, symName: __ZNSt3__14pairIPNS_6vectorIiNS_9allocatorIiEEEES5_EC1B8ue170006IS5_S5_LPv0EEEOT_OT0_, symObjAddr: 0xEBF0, symBinAddr: 0x10000F54C, symSize: 0x3C }
  - { offsetInCU: 0x203F5, offset: 0x203F5, size: 0x8, addend: 0x0, symName: __ZNSt3__14pairIPNS_6vectorIiNS_9allocatorIiEEEES5_EC2B8ue170006IS5_S5_LPv0EEEOT_OT0_, symObjAddr: 0xEC2C, symBinAddr: 0x10000F588, symSize: 0x34 }
  - { offsetInCU: 0x20453, offset: 0x20453, size: 0x8, addend: 0x0, symName: __ZNSt3__129_AllocatorDestroyRangeReverseINS_9allocatorINS_6vectorIiNS1_IiEEEEEEPS4_EC1B8ue170006ERS5_RS6_S9_, symObjAddr: 0xECAC, symBinAddr: 0x10000F608, symSize: 0x44 }
  - { offsetInCU: 0x204AA, offset: 0x204AA, size: 0x8, addend: 0x0, symName: __ZNSt3__116allocator_traitsINS_9allocatorINS_6vectorIiNS1_IiEEEEEEE9constructB8ue170006IS4_JRS4_EvEEvRS5_PT_DpOT0_, symObjAddr: 0xECF0, symBinAddr: 0x10000F64C, symSize: 0x34 }
  - { offsetInCU: 0x20501, offset: 0x20501, size: 0x8, addend: 0x0, symName: __ZNSt3__128__exception_guard_exceptionsINS_29_AllocatorDestroyRangeReverseINS_9allocatorINS_6vectorIiNS2_IiEEEEEEPS5_EEE10__completeB8ue170006Ev, symObjAddr: 0xED24, symBinAddr: 0x10000F680, symSize: 0x1C }
  - { offsetInCU: 0x20527, offset: 0x20527, size: 0x8, addend: 0x0, symName: __ZNSt3__128__exception_guard_exceptionsINS_29_AllocatorDestroyRangeReverseINS_9allocatorINS_6vectorIiNS2_IiEEEEEEPS5_EEED1B8ue170006Ev, symObjAddr: 0xED40, symBinAddr: 0x10000F69C, symSize: 0x2C }
  - { offsetInCU: 0x20551, offset: 0x20551, size: 0x8, addend: 0x0, symName: __ZNSt3__128__exception_guard_exceptionsINS_29_AllocatorDestroyRangeReverseINS_9allocatorINS_6vectorIiNS2_IiEEEEEEPS5_EEEC1B8ue170006ES8_, symObjAddr: 0xED6C, symBinAddr: 0x10000F6C8, symSize: 0x34 }
  - { offsetInCU: 0x2058A, offset: 0x2058A, size: 0x8, addend: 0x0, symName: __ZNSt3__128__exception_guard_exceptionsINS_29_AllocatorDestroyRangeReverseINS_9allocatorINS_6vectorIiNS2_IiEEEEEEPS5_EEEC2B8ue170006ES8_, symObjAddr: 0xEDA0, symBinAddr: 0x10000F6FC, symSize: 0x30 }
  - { offsetInCU: 0x205C3, offset: 0x205C3, size: 0x8, addend: 0x0, symName: __ZNSt3__129_AllocatorDestroyRangeReverseINS_9allocatorINS_6vectorIiNS1_IiEEEEEEPS4_EC2B8ue170006ERS5_RS6_S9_, symObjAddr: 0xEDD0, symBinAddr: 0x10000F72C, symSize: 0x38 }
  - { offsetInCU: 0x2061A, offset: 0x2061A, size: 0x8, addend: 0x0, symName: __ZNSt3__19allocatorINS_6vectorIiNS0_IiEEEEE9constructB8ue170006IS3_JRS3_EEEvPT_DpOT0_, symObjAddr: 0xEE08, symBinAddr: 0x10000F764, symSize: 0x30 }
  - { offsetInCU: 0x20670, offset: 0x20670, size: 0x8, addend: 0x0, symName: __ZNSt3__128__exception_guard_exceptionsINS_29_AllocatorDestroyRangeReverseINS_9allocatorINS_6vectorIiNS2_IiEEEEEEPS5_EEED2B8ue170006Ev, symObjAddr: 0xEE38, symBinAddr: 0x10000F794, symSize: 0x50 }
  - { offsetInCU: 0x2069A, offset: 0x2069A, size: 0x8, addend: 0x0, symName: __ZNKSt3__129_AllocatorDestroyRangeReverseINS_9allocatorINS_6vectorIiNS1_IiEEEEEEPS4_EclB8ue170006Ev, symObjAddr: 0xEE88, symBinAddr: 0x10000F7E4, symSize: 0x68 }
  - { offsetInCU: 0x206C0, offset: 0x206C0, size: 0x8, addend: 0x0, symName: __ZNSt3__116reverse_iteratorIPNS_6vectorIiNS_9allocatorIiEEEEEC1B8ue170006ES5_, symObjAddr: 0xEF60, symBinAddr: 0x10000F8BC, symSize: 0x34 }
  - { offsetInCU: 0x206F8, offset: 0x206F8, size: 0x8, addend: 0x0, symName: __ZNSt3__116reverse_iteratorIPNS_6vectorIiNS_9allocatorIiEEEEEppB8ue170006Ev, symObjAddr: 0xF000, symBinAddr: 0x10000F95C, symSize: 0x20 }
  - { offsetInCU: 0x2071E, offset: 0x2071E, size: 0x8, addend: 0x0, symName: __ZNKSt3__116reverse_iteratorIPNS_6vectorIiNS_9allocatorIiEEEEE4baseB8ue170006Ev, symObjAddr: 0xF020, symBinAddr: 0x10000F97C, symSize: 0x18 }
  - { offsetInCU: 0x20749, offset: 0x20749, size: 0x8, addend: 0x0, symName: __ZNSt3__119__to_address_helperINS_16reverse_iteratorIPNS_6vectorIiNS_9allocatorIiEEEEEEvE6__callB8ue170006ERKS7_, symObjAddr: 0xF038, symBinAddr: 0x10000F994, symSize: 0x38 }
  - { offsetInCU: 0x2076C, offset: 0x2076C, size: 0x8, addend: 0x0, symName: __ZNKSt3__116reverse_iteratorIPNS_6vectorIiNS_9allocatorIiEEEEEptB8ue170006Ev, symObjAddr: 0xF070, symBinAddr: 0x10000F9CC, symSize: 0x24 }
  - { offsetInCU: 0x20792, offset: 0x20792, size: 0x8, addend: 0x0, symName: __ZNKSt3__116reverse_iteratorIPNS_6vectorIiNS_9allocatorIiEEEEEdeB8ue170006Ev, symObjAddr: 0xF094, symBinAddr: 0x10000F9F0, symSize: 0x28 }
  - { offsetInCU: 0x207C6, offset: 0x207C6, size: 0x8, addend: 0x0, symName: __ZNSt3__116reverse_iteratorIPNS_6vectorIiNS_9allocatorIiEEEEEC2B8ue170006ES5_, symObjAddr: 0xF0BC, symBinAddr: 0x10000FA18, symSize: 0x28 }
  - { offsetInCU: 0x207FE, offset: 0x207FE, size: 0x8, addend: 0x0, symName: __ZNSt3__118__unwrap_iter_implIPNS_6vectorIiNS_9allocatorIiEEEELb1EE8__unwrapB8ue170006ES5_, symObjAddr: 0xF0E4, symBinAddr: 0x10000FA40, symSize: 0x24 }
  - { offsetInCU: 0x20821, offset: 0x20821, size: 0x8, addend: 0x0, symName: __ZNSt3__118__unwrap_iter_implIPNS_6vectorIiNS_9allocatorIiEEEELb1EE8__rewrapB8ue170006ES5_S5_, symObjAddr: 0xF108, symBinAddr: 0x10000FA64, symSize: 0x58 }
  - { offsetInCU: 0x20852, offset: 0x20852, size: 0x8, addend: 0x0, symName: __ZNSt3__16vectorINS0_INS0_IiNS_9allocatorIiEEEENS1_IS3_EEEENS1_IS5_EEE21_ConstructTransactionD2B8ue170006Ev, symObjAddr: 0xF160, symBinAddr: 0x10000FABC, symSize: 0x20 }
  - { offsetInCU: 0x2087C, offset: 0x2087C, size: 0x8, addend: 0x0, symName: __ZNSt3__128__exception_guard_exceptionsINS_6vectorINS1_INS1_IiNS_9allocatorIiEEEENS2_IS4_EEEENS2_IS6_EEE16__destroy_vectorEED2B8ue170006Ev, symObjAddr: 0xF180, symBinAddr: 0x10000FADC, symSize: 0x50 }
  - { offsetInCU: 0x208A6, offset: 0x208A6, size: 0x8, addend: 0x0, symName: __ZNSt3__16vectorINS0_INS0_IiNS_9allocatorIiEEEENS1_IS3_EEEENS1_IS5_EEE16__destroy_vectorclB8ue170006Ev, symObjAddr: 0xF1D0, symBinAddr: 0x10000FB2C, symSize: 0x90 }
  - { offsetInCU: 0x208CC, offset: 0x208CC, size: 0x8, addend: 0x0, symName: __ZNSt3__16vectorINS0_INS0_IiNS_9allocatorIiEEEENS1_IS3_EEEENS1_IS5_EEE7__clearB8ue170006Ev, symObjAddr: 0xF260, symBinAddr: 0x10000FBBC, symSize: 0x28 }
  - { offsetInCU: 0x208F2, offset: 0x208F2, size: 0x8, addend: 0x0, symName: __ZNKSt3__16vectorINS0_INS0_IiNS_9allocatorIiEEEENS1_IS3_EEEENS1_IS5_EEE17__annotate_deleteB8ue170006Ev, symObjAddr: 0xF288, symBinAddr: 0x10000FBE4, symSize: 0xD4 }
  - { offsetInCU: 0x20918, offset: 0x20918, size: 0x8, addend: 0x0, symName: __ZNSt3__116allocator_traitsINS_9allocatorINS_6vectorINS2_IiNS1_IiEEEENS1_IS4_EEEEEEE10deallocateB8ue170006ERS7_PS6_m, symObjAddr: 0xF35C, symBinAddr: 0x10000FCB8, symSize: 0x34 }
  - { offsetInCU: 0x2095A, offset: 0x2095A, size: 0x8, addend: 0x0, symName: __ZNSt3__16vectorINS0_INS0_IiNS_9allocatorIiEEEENS1_IS3_EEEENS1_IS5_EEE22__base_destruct_at_endB8ue170006EPS5_, symObjAddr: 0xF390, symBinAddr: 0x10000FCEC, symSize: 0x8C }
  - { offsetInCU: 0x2099E, offset: 0x2099E, size: 0x8, addend: 0x0, symName: __ZNSt3__116allocator_traitsINS_9allocatorINS_6vectorINS2_IiNS1_IiEEEENS1_IS4_EEEEEEE7destroyB8ue170006IS6_vEEvRS7_PT_, symObjAddr: 0xF41C, symBinAddr: 0x10000FD78, symSize: 0x2C }
  - { offsetInCU: 0x209DB, offset: 0x209DB, size: 0x8, addend: 0x0, symName: __ZNSt3__19allocatorINS_6vectorINS1_IiNS0_IiEEEENS0_IS3_EEEEE7destroyB8ue170006EPS5_, symObjAddr: 0xF448, symBinAddr: 0x10000FDA4, symSize: 0x28 }
  - { offsetInCU: 0x20A0F, offset: 0x20A0F, size: 0x8, addend: 0x0, symName: __ZNKSt3__16vectorINS0_INS0_IiNS_9allocatorIiEEEENS1_IS3_EEEENS1_IS5_EEE4sizeB8ue170006Ev, symObjAddr: 0xF470, symBinAddr: 0x10000FDCC, symSize: 0x28 }
  - { offsetInCU: 0x20A35, offset: 0x20A35, size: 0x8, addend: 0x0, symName: __ZNSt3__19allocatorINS_6vectorINS1_IiNS0_IiEEEENS0_IS3_EEEEE10deallocateB8ue170006EPS5_m, symObjAddr: 0xF498, symBinAddr: 0x10000FDF4, symSize: 0x44 }
  - { offsetInCU: 0x20A77, offset: 0x20A77, size: 0x8, addend: 0x0, symName: __ZNSt3__16vectorINS0_INS0_IiNS_9allocatorIiEEEENS1_IS3_EEEENS1_IS5_EEED2B8ue170006Ev, symObjAddr: 0xF4DC, symBinAddr: 0x10000FE38, symSize: 0x40 }
  - { offsetInCU: 0x20AA1, offset: 0x20AA1, size: 0x8, addend: 0x0, symName: __ZNSt3__15queueINS_5tupleIJiiiEEENS_5dequeIS2_NS_9allocatorIS2_EEEEEC2B8ue170006Ev, symObjAddr: 0xF51C, symBinAddr: 0x10000FE78, symSize: 0x2C }
  - { offsetInCU: 0x20ACB, offset: 0x20ACB, size: 0x8, addend: 0x0, symName: __ZNSt3__15dequeINS_5tupleIJiiiEEENS_9allocatorIS2_EEEC1B8ue170006Ev, symObjAddr: 0xF548, symBinAddr: 0x10000FEA4, symSize: 0x2C }
  - { offsetInCU: 0x20AF5, offset: 0x20AF5, size: 0x8, addend: 0x0, symName: __ZNSt3__15dequeINS_5tupleIJiiiEEENS_9allocatorIS2_EEEC2B8ue170006Ev, symObjAddr: 0xF574, symBinAddr: 0x10000FED0, symSize: 0x5C }
  - { offsetInCU: 0x20B1F, offset: 0x20B1F, size: 0x8, addend: 0x0, symName: __ZNSt3__114__split_bufferIPNS_5tupleIJiiiEEENS_9allocatorIS3_EEEC1B8ue170006Ev, symObjAddr: 0xF5D0, symBinAddr: 0x10000FF2C, symSize: 0x2C }
  - { offsetInCU: 0x20B49, offset: 0x20B49, size: 0x8, addend: 0x0, symName: __ZNSt3__117__compressed_pairImNS_9allocatorINS_5tupleIJiiiEEEEEEC1B8ue170006IiNS_18__default_init_tagEEEOT_OT0_, symObjAddr: 0xF5FC, symBinAddr: 0x10000FF58, symSize: 0x3C }
  - { offsetInCU: 0x20BA1, offset: 0x20BA1, size: 0x8, addend: 0x0, symName: __ZNSt3__114__split_bufferIPNS_5tupleIJiiiEEENS_9allocatorIS3_EEEC2B8ue170006Ev, symObjAddr: 0xF638, symBinAddr: 0x10000FF94, symSize: 0x50 }
  - { offsetInCU: 0x20BCB, offset: 0x20BCB, size: 0x8, addend: 0x0, symName: __ZNSt3__117__compressed_pairIPPNS_5tupleIJiiiEEENS_9allocatorIS3_EEEC1B8ue170006IDnNS_18__default_init_tagEEEOT_OT0_, symObjAddr: 0xF688, symBinAddr: 0x10000FFE4, symSize: 0x3C }
  - { offsetInCU: 0x20C23, offset: 0x20C23, size: 0x8, addend: 0x0, symName: __ZNSt3__117__compressed_pairIPPNS_5tupleIJiiiEEENS_9allocatorIS3_EEEC2B8ue170006IDnNS_18__default_init_tagEEEOT_OT0_, symObjAddr: 0xF6C4, symBinAddr: 0x100010020, symSize: 0x40 }
  - { offsetInCU: 0x20C7B, offset: 0x20C7B, size: 0x8, addend: 0x0, symName: __ZNSt3__122__compressed_pair_elemIPPNS_5tupleIJiiiEEELi0ELb0EEC2B8ue170006IDnvEEOT_, symObjAddr: 0xF704, symBinAddr: 0x100010060, symSize: 0x1C }
  - { offsetInCU: 0x20CBD, offset: 0x20CBD, size: 0x8, addend: 0x0, symName: __ZNSt3__122__compressed_pair_elemINS_9allocatorIPNS_5tupleIJiiiEEEEELi1ELb1EEC2B8ue170006ENS_18__default_init_tagE, symObjAddr: 0xF720, symBinAddr: 0x10001007C, symSize: 0x2C }
  - { offsetInCU: 0x20CF1, offset: 0x20CF1, size: 0x8, addend: 0x0, symName: __ZNSt3__19allocatorIPNS_5tupleIJiiiEEEEC2B8ue170006Ev, symObjAddr: 0xF74C, symBinAddr: 0x1000100A8, symSize: 0x2C }
  - { offsetInCU: 0x20D1B, offset: 0x20D1B, size: 0x8, addend: 0x0, symName: __ZNSt3__116__non_trivial_ifILb1ENS_9allocatorIPNS_5tupleIJiiiEEEEEEC2B8ue170006Ev, symObjAddr: 0xF778, symBinAddr: 0x1000100D4, symSize: 0x14 }
  - { offsetInCU: 0x20D45, offset: 0x20D45, size: 0x8, addend: 0x0, symName: __ZNSt3__117__compressed_pairImNS_9allocatorINS_5tupleIJiiiEEEEEEC2B8ue170006IiNS_18__default_init_tagEEEOT_OT0_, symObjAddr: 0xF78C, symBinAddr: 0x1000100E8, symSize: 0x40 }
  - { offsetInCU: 0x20D9D, offset: 0x20D9D, size: 0x8, addend: 0x0, symName: __ZNSt3__122__compressed_pair_elemINS_9allocatorINS_5tupleIJiiiEEEEELi1ELb1EEC2B8ue170006ENS_18__default_init_tagE, symObjAddr: 0xF7CC, symBinAddr: 0x100010128, symSize: 0x2C }
  - { offsetInCU: 0x20DD1, offset: 0x20DD1, size: 0x8, addend: 0x0, symName: __ZNSt3__19allocatorINS_5tupleIJiiiEEEEC2B8ue170006Ev, symObjAddr: 0xF7F8, symBinAddr: 0x100010154, symSize: 0x2C }
  - { offsetInCU: 0x20DFB, offset: 0x20DFB, size: 0x8, addend: 0x0, symName: __ZNSt3__116__non_trivial_ifILb1ENS_9allocatorINS_5tupleIJiiiEEEEEEC2B8ue170006Ev, symObjAddr: 0xF824, symBinAddr: 0x100010180, symSize: 0x14 }
  - { offsetInCU: 0x20E25, offset: 0x20E25, size: 0x8, addend: 0x0, symName: __ZNSt3__15dequeINS_5tupleIJiiiEEENS_9allocatorIS2_EEE9push_backEOS2_, symObjAddr: 0xF838, symBinAddr: 0x100010194, symSize: 0xAC }
  - { offsetInCU: 0x20E6B, offset: 0x20E6B, size: 0x8, addend: 0x0, symName: __ZNKSt3__15dequeINS_5tupleIJiiiEEENS_9allocatorIS2_EEE12__back_spareB8ue170006Ev, symObjAddr: 0xF8E4, symBinAddr: 0x100010240, symSize: 0x54 }
  - { offsetInCU: 0x20E91, offset: 0x20E91, size: 0x8, addend: 0x0, symName: __ZNSt3__15dequeINS_5tupleIJiiiEEENS_9allocatorIS2_EEE19__add_back_capacityEv, symObjAddr: 0xF938, symBinAddr: 0x100010294, symSize: 0x34C }
  - { offsetInCU: 0x20F47, offset: 0x20F47, size: 0x8, addend: 0x0, symName: __ZNKSt3__15dequeINS_5tupleIJiiiEEENS_9allocatorIS2_EEE24__annotate_increase_backB8ue170006Em, symObjAddr: 0xFC84, symBinAddr: 0x1000105E0, symSize: 0x7C }
  - { offsetInCU: 0x20F7C, offset: 0x20F7C, size: 0x8, addend: 0x0, symName: __ZNSt3__116allocator_traitsINS_9allocatorINS_5tupleIJiiiEEEEEE9constructB8ue170006IS3_JS3_EvEEvRS4_PT_DpOT0_, symObjAddr: 0xFD00, symBinAddr: 0x10001065C, symSize: 0x34 }
  - { offsetInCU: 0x20FD3, offset: 0x20FD3, size: 0x8, addend: 0x0, symName: __ZNKSt3__15dequeINS_5tupleIJiiiEEENS_9allocatorIS2_EEE10__capacityB8ue170006Ev, symObjAddr: 0xFD34, symBinAddr: 0x100010690, symSize: 0x64 }
  - { offsetInCU: 0x20FF9, offset: 0x20FF9, size: 0x8, addend: 0x0, symName: __ZNKSt3__15dequeINS_5tupleIJiiiEEENS_9allocatorIS2_EEE13__front_spareB8ue170006Ev, symObjAddr: 0xFD98, symBinAddr: 0x1000106F4, symSize: 0x18 }
  - { offsetInCU: 0x2101F, offset: 0x2101F, size: 0x8, addend: 0x0, symName: __ZNSt3__114__split_bufferIPNS_5tupleIJiiiEEENS_9allocatorIS3_EEE9push_backB8ue170006ERKS3_, symObjAddr: 0xFDB0, symBinAddr: 0x10001070C, symSize: 0x260 }
  - { offsetInCU: 0x21098, offset: 0x21098, size: 0x8, addend: 0x0, symName: __ZNKSt3__114__split_bufferIPNS_5tupleIJiiiEEENS_9allocatorIS3_EEE12__back_spareB8ue170006Ev, symObjAddr: 0x10010, symBinAddr: 0x10001096C, symSize: 0x40 }
  - { offsetInCU: 0x210BE, offset: 0x210BE, size: 0x8, addend: 0x0, symName: __ZNSt3__114__split_bufferIPNS_5tupleIJiiiEEENS_9allocatorIS3_EEE9push_backEOS3_, symObjAddr: 0x10050, symBinAddr: 0x1000109AC, symSize: 0x260 }
  - { offsetInCU: 0x21137, offset: 0x21137, size: 0x8, addend: 0x0, symName: __ZNSt3__116allocator_traitsINS_9allocatorINS_5tupleIJiiiEEEEEE8allocateB8ue170006ERS4_m, symObjAddr: 0x102B0, symBinAddr: 0x100010C0C, symSize: 0x2C }
  - { offsetInCU: 0x2116A, offset: 0x2116A, size: 0x8, addend: 0x0, symName: __ZNSt3__114__split_bufferIPNS_5tupleIJiiiEEENS_9allocatorIS3_EEE10push_frontEOS3_, symObjAddr: 0x102DC, symBinAddr: 0x100010C38, symSize: 0x25C }
  - { offsetInCU: 0x211E3, offset: 0x211E3, size: 0x8, addend: 0x0, symName: __ZNSt3__114__split_bufferIPNS_5tupleIJiiiEEERNS_9allocatorIS3_EEEC1EmmS6_, symObjAddr: 0x10538, symBinAddr: 0x100010E94, symSize: 0x44 }
  - { offsetInCU: 0x2123E, offset: 0x2123E, size: 0x8, addend: 0x0, symName: __ZNSt3__122__allocator_destructorINS_9allocatorINS_5tupleIJiiiEEEEEEC1B8ue170006ERS4_m, symObjAddr: 0x1057C, symBinAddr: 0x100010ED8, symSize: 0x3C }
  - { offsetInCU: 0x21301, offset: 0x21301, size: 0x8, addend: 0x0, symName: __ZNSt3__110unique_ptrIPNS_5tupleIJiiiEEENS_22__allocator_destructorINS_9allocatorIS2_EEEEEC1B8ue170006ILb1EvEES3_NS_16__dependent_typeINS_27__unique_ptr_deleter_sfinaeIS7_EEXT_EE20__good_rval_ref_typeE, symObjAddr: 0x105B8, symBinAddr: 0x100010F14, symSize: 0x3C }
  - { offsetInCU: 0x21352, offset: 0x21352, size: 0x8, addend: 0x0, symName: __ZNSt3__114__split_bufferIPNS_5tupleIJiiiEEERNS_9allocatorIS3_EEE9push_backEOS3_, symObjAddr: 0x105F4, symBinAddr: 0x100010F50, symSize: 0x260 }
  - { offsetInCU: 0x213CB, offset: 0x213CB, size: 0x8, addend: 0x0, symName: __ZNKSt3__110unique_ptrIPNS_5tupleIJiiiEEENS_22__allocator_destructorINS_9allocatorIS2_EEEEE3getB8ue170006Ev, symObjAddr: 0x10854, symBinAddr: 0x1000111B0, symSize: 0x28 }
  - { offsetInCU: 0x213F1, offset: 0x213F1, size: 0x8, addend: 0x0, symName: __ZNSt3__110unique_ptrIPNS_5tupleIJiiiEEENS_22__allocator_destructorINS_9allocatorIS2_EEEEE7releaseB8ue170006Ev, symObjAddr: 0x1087C, symBinAddr: 0x1000111D8, symSize: 0x44 }
  - { offsetInCU: 0x21426, offset: 0x21426, size: 0x8, addend: 0x0, symName: __ZNSt3__114__split_bufferIPNS_5tupleIJiiiEEERNS_9allocatorIS3_EEE10push_frontERKS3_, symObjAddr: 0x108C0, symBinAddr: 0x10001121C, symSize: 0x25C }
  - { offsetInCU: 0x2149F, offset: 0x2149F, size: 0x8, addend: 0x0, symName: __ZNSt3__114__split_bufferIPNS_5tupleIJiiiEEENS_9allocatorIS3_EEE9__end_capB8ue170006Ev, symObjAddr: 0x10B58, symBinAddr: 0x1000114B4, symSize: 0x28 }
  - { offsetInCU: 0x214C5, offset: 0x214C5, size: 0x8, addend: 0x0, symName: __ZNSt3__114__split_bufferIPNS_5tupleIJiiiEEERNS_9allocatorIS3_EEE9__end_capB8ue170006Ev, symObjAddr: 0x10B80, symBinAddr: 0x1000114DC, symSize: 0x28 }
  - { offsetInCU: 0x214EB, offset: 0x214EB, size: 0x8, addend: 0x0, symName: __ZNSt3__110unique_ptrIPNS_5tupleIJiiiEEENS_22__allocator_destructorINS_9allocatorIS2_EEEEED1B8ue170006Ev, symObjAddr: 0x10BA8, symBinAddr: 0x100011504, symSize: 0x2C }
  - { offsetInCU: 0x21515, offset: 0x21515, size: 0x8, addend: 0x0, symName: __ZNSt3__114__split_bufferIPNS_5tupleIJiiiEEERNS_9allocatorIS3_EEED1Ev, symObjAddr: 0x10BD4, symBinAddr: 0x100011530, symSize: 0x2C }
  - { offsetInCU: 0x21541, offset: 0x21541, size: 0x8, addend: 0x0, symName: __ZNSt3__114__split_bufferIPNS_5tupleIJiiiEEERNS_9allocatorIS3_EEE18__construct_at_endINS_13move_iteratorIPS3_EEEENS_9enable_ifIXsr31__has_forward_iterator_categoryIT_EE5valueEvE4typeESD_SD_, symObjAddr: 0x10C40, symBinAddr: 0x10001159C, symSize: 0x60 }
  - { offsetInCU: 0x2158E, offset: 0x2158E, size: 0x8, addend: 0x0, symName: __ZNSt3__113move_iteratorIPPNS_5tupleIJiiiEEEEC1B8ue170006ES4_, symObjAddr: 0x10CA0, symBinAddr: 0x1000115FC, symSize: 0x34 }
  - { offsetInCU: 0x215C6, offset: 0x215C6, size: 0x8, addend: 0x0, symName: __ZNSt3__116allocator_traitsINS_9allocatorIPNS_5tupleIJiiiEEEEEE9constructB8ue170006IS4_JRKS4_EvEEvRS5_PT_DpOT0_, symObjAddr: 0x10CD4, symBinAddr: 0x100011630, symSize: 0x34 }
  - { offsetInCU: 0x21640, offset: 0x21640, size: 0x8, addend: 0x0, symName: __ZNKSt3__114__move_trivialclB8ue170006IPNS_5tupleIJiiiEEES4_Li0EEENS_4pairIPT_PT0_EES7_S7_S9_, symObjAddr: 0x10EA4, symBinAddr: 0x100011800, symSize: 0x48 }
  - { offsetInCU: 0x216AD, offset: 0x216AD, size: 0x8, addend: 0x0, symName: __ZNSt3__14pairIPPNS_5tupleIJiiiEEES4_EC1B8ue170006IRS4_S4_LPv0EEEOT_OT0_, symObjAddr: 0x110CC, symBinAddr: 0x100011A28, symSize: 0x3C }
  - { offsetInCU: 0x2170B, offset: 0x2170B, size: 0x8, addend: 0x0, symName: __ZNSt3__14pairIPPNS_5tupleIJiiiEEES4_EC2B8ue170006IRS4_S4_LPv0EEEOT_OT0_, symObjAddr: 0x11108, symBinAddr: 0x100011A64, symSize: 0x34 }
  - { offsetInCU: 0x21769, offset: 0x21769, size: 0x8, addend: 0x0, symName: __ZNSt3__118__unwrap_iter_implIPPNS_5tupleIJiiiEEELb1EE8__unwrapB8ue170006ES4_, symObjAddr: 0x1113C, symBinAddr: 0x100011A98, symSize: 0x24 }
  - { offsetInCU: 0x2178C, offset: 0x2178C, size: 0x8, addend: 0x0, symName: __ZNSt3__14pairIPPNS_5tupleIJiiiEEES4_EC1B8ue170006IS4_S4_LPv0EEEOT_OT0_, symObjAddr: 0x11160, symBinAddr: 0x100011ABC, symSize: 0x3C }
  - { offsetInCU: 0x217EA, offset: 0x217EA, size: 0x8, addend: 0x0, symName: __ZNSt3__14pairIPPNS_5tupleIJiiiEEES4_EC2B8ue170006IS4_S4_LPv0EEEOT_OT0_, symObjAddr: 0x1119C, symBinAddr: 0x100011AF8, symSize: 0x34 }
  - { offsetInCU: 0x21848, offset: 0x21848, size: 0x8, addend: 0x0, symName: __ZNSt3__118__unwrap_iter_implIPPNS_5tupleIJiiiEEELb1EE8__rewrapB8ue170006ES4_S4_, symObjAddr: 0x111D0, symBinAddr: 0x100011B2C, symSize: 0x50 }
  - { offsetInCU: 0x21879, offset: 0x21879, size: 0x8, addend: 0x0, symName: __ZNSt3__114__split_bufferIPNS_5tupleIJiiiEEERNS_9allocatorIS3_EEE28__construct_at_end_with_sizeINS_13move_iteratorIPS3_EEEEvT_m, symObjAddr: 0x11220, symBinAddr: 0x100011B7C, symSize: 0xDC }
  - { offsetInCU: 0x218DF, offset: 0x218DF, size: 0x8, addend: 0x0, symName: __ZNSt3__114__split_bufferIPNS_5tupleIJiiiEEERNS_9allocatorIS3_EEE21_ConstructTransactionC1B8ue170006EPPS3_m, symObjAddr: 0x11338, symBinAddr: 0x100011C94, symSize: 0x3C }
  - { offsetInCU: 0x21925, offset: 0x21925, size: 0x8, addend: 0x0, symName: __ZNSt3__116allocator_traitsINS_9allocatorIPNS_5tupleIJiiiEEEEEE9constructB8ue170006IS4_JS4_EvEEvRS5_PT_DpOT0_, symObjAddr: 0x11374, symBinAddr: 0x100011CD0, symSize: 0x34 }
  - { offsetInCU: 0x2197C, offset: 0x2197C, size: 0x8, addend: 0x0, symName: __ZNSt3__114__split_bufferIPNS_5tupleIJiiiEEERNS_9allocatorIS3_EEE7__allocB8ue170006Ev, symObjAddr: 0x113A8, symBinAddr: 0x100011D04, symSize: 0x28 }
  - { offsetInCU: 0x219A2, offset: 0x219A2, size: 0x8, addend: 0x0, symName: __ZNKSt3__113move_iteratorIPPNS_5tupleIJiiiEEEEdeB8ue170006Ev, symObjAddr: 0x113D0, symBinAddr: 0x100011D2C, symSize: 0x18 }
  - { offsetInCU: 0x219C8, offset: 0x219C8, size: 0x8, addend: 0x0, symName: __ZNSt3__113move_iteratorIPPNS_5tupleIJiiiEEEEppB8ue170006Ev, symObjAddr: 0x113E8, symBinAddr: 0x100011D44, symSize: 0x20 }
  - { offsetInCU: 0x219EE, offset: 0x219EE, size: 0x8, addend: 0x0, symName: __ZNSt3__114__split_bufferIPNS_5tupleIJiiiEEERNS_9allocatorIS3_EEE21_ConstructTransactionD1B8ue170006Ev, symObjAddr: 0x11408, symBinAddr: 0x100011D64, symSize: 0x2C }
  - { offsetInCU: 0x21A18, offset: 0x21A18, size: 0x8, addend: 0x0, symName: __ZNSt3__114__split_bufferIPNS_5tupleIJiiiEEERNS_9allocatorIS3_EEE21_ConstructTransactionC2B8ue170006EPPS3_m, symObjAddr: 0x11434, symBinAddr: 0x100011D90, symSize: 0x44 }
  - { offsetInCU: 0x21A5E, offset: 0x21A5E, size: 0x8, addend: 0x0, symName: __ZNSt3__19allocatorIPNS_5tupleIJiiiEEEE9constructB8ue170006IS3_JS3_EEEvPT_DpOT0_, symObjAddr: 0x11478, symBinAddr: 0x100011DD4, symSize: 0x28 }
  - { offsetInCU: 0x21AB4, offset: 0x21AB4, size: 0x8, addend: 0x0, symName: __ZNSt3__117__compressed_pairIPPNS_5tupleIJiiiEEERNS_9allocatorIS3_EEE6secondB8ue170006Ev, symObjAddr: 0x114A0, symBinAddr: 0x100011DFC, symSize: 0x28 }
  - { offsetInCU: 0x21ADA, offset: 0x21ADA, size: 0x8, addend: 0x0, symName: __ZNSt3__122__compressed_pair_elemIRNS_9allocatorIPNS_5tupleIJiiiEEEEELi1ELb0EE5__getB8ue170006Ev, symObjAddr: 0x114C8, symBinAddr: 0x100011E24, symSize: 0x18 }
  - { offsetInCU: 0x21B00, offset: 0x21B00, size: 0x8, addend: 0x0, symName: __ZNSt3__114__split_bufferIPNS_5tupleIJiiiEEERNS_9allocatorIS3_EEE21_ConstructTransactionD2B8ue170006Ev, symObjAddr: 0x114E0, symBinAddr: 0x100011E3C, symSize: 0x20 }
  - { offsetInCU: 0x21B2A, offset: 0x21B2A, size: 0x8, addend: 0x0, symName: __ZNKSt3__113move_iteratorIPPNS_5tupleIJiiiEEEE4baseB8ue170006Ev, symObjAddr: 0x11578, symBinAddr: 0x100011ED4, symSize: 0x18 }
  - { offsetInCU: 0x21B50, offset: 0x21B50, size: 0x8, addend: 0x0, symName: __ZNSt3__113move_iteratorIPPNS_5tupleIJiiiEEEEC2B8ue170006ES4_, symObjAddr: 0x11590, symBinAddr: 0x100011EEC, symSize: 0x20 }
  - { offsetInCU: 0x21B88, offset: 0x21B88, size: 0x8, addend: 0x0, symName: __ZNSt3__19allocatorIPNS_5tupleIJiiiEEEE9constructB8ue170006IS3_JRKS3_EEEvPT_DpOT0_, symObjAddr: 0x115B0, symBinAddr: 0x100011F0C, symSize: 0x28 }
  - { offsetInCU: 0x21BDE, offset: 0x21BDE, size: 0x8, addend: 0x0, symName: __ZNSt3__19allocatorINS_5tupleIJiiiEEEE8allocateB8ue170006Em, symObjAddr: 0x115D8, symBinAddr: 0x100011F34, symSize: 0x5C }
  - { offsetInCU: 0x21C1C, offset: 0x21C1C, size: 0x8, addend: 0x0, symName: __ZNSt3__116allocator_traitsINS_9allocatorINS_5tupleIJiiiEEEEEE8max_sizeB8ue170006IS4_vEEmRKS4_, symObjAddr: 0x11634, symBinAddr: 0x100011F90, symSize: 0x24 }
  - { offsetInCU: 0x21C4A, offset: 0x21C4A, size: 0x8, addend: 0x0, symName: __ZNKSt3__19allocatorINS_5tupleIJiiiEEEE8max_sizeB8ue170006Ev, symObjAddr: 0x11658, symBinAddr: 0x100011FB4, symSize: 0x18 }
  - { offsetInCU: 0x21C7A, offset: 0x21C7A, size: 0x8, addend: 0x0, symName: __ZNKSt3__123__move_backward_trivialclB8ue170006IPNS_5tupleIJiiiEEES4_Li0EEENS_4pairIPT_PT0_EES7_S7_S9_, symObjAddr: 0x117EC, symBinAddr: 0x100012148, symSize: 0x48 }
  - { offsetInCU: 0x21CE2, offset: 0x21CE2, size: 0x8, addend: 0x0, symName: __ZNSt3__14pairIPPNS_5tupleIJiiiEEES4_EC1B8ue170006IRS4_S7_LPv0EEEOT_OT0_, symObjAddr: 0x118FC, symBinAddr: 0x100012258, symSize: 0x3C }
  - { offsetInCU: 0x21D40, offset: 0x21D40, size: 0x8, addend: 0x0, symName: __ZNSt3__14pairIPPNS_5tupleIJiiiEEES4_EC2B8ue170006IRS4_S7_LPv0EEEOT_OT0_, symObjAddr: 0x11938, symBinAddr: 0x100012294, symSize: 0x34 }
  - { offsetInCU: 0x21D9E, offset: 0x21D9E, size: 0x8, addend: 0x0, symName: __ZNSt3__114__split_bufferIPNS_5tupleIJiiiEEERNS_9allocatorIS3_EEEC2EmmS6_, symObjAddr: 0x1196C, symBinAddr: 0x1000122C8, symSize: 0xD4 }
  - { offsetInCU: 0x21E11, offset: 0x21E11, size: 0x8, addend: 0x0, symName: __ZNSt3__117__compressed_pairIPPNS_5tupleIJiiiEEERNS_9allocatorIS3_EEEC1B8ue170006IDnS7_EEOT_OT0_, symObjAddr: 0x11A40, symBinAddr: 0x10001239C, symSize: 0x3C }
  - { offsetInCU: 0x21E69, offset: 0x21E69, size: 0x8, addend: 0x0, symName: __ZNSt3__117__compressed_pairIPPNS_5tupleIJiiiEEERNS_9allocatorIS3_EEEC2B8ue170006IDnS7_EEOT_OT0_, symObjAddr: 0x11ABC, symBinAddr: 0x100012418, symSize: 0x48 }
  - { offsetInCU: 0x21EC1, offset: 0x21EC1, size: 0x8, addend: 0x0, symName: __ZNSt3__122__compressed_pair_elemIRNS_9allocatorIPNS_5tupleIJiiiEEEEELi1ELb0EEC2B8ue170006IS6_vEEOT_, symObjAddr: 0x11B04, symBinAddr: 0x100012460, symSize: 0x20 }
  - { offsetInCU: 0x21F03, offset: 0x21F03, size: 0x8, addend: 0x0, symName: __ZNSt3__19allocatorIPNS_5tupleIJiiiEEEE8allocateB8ue170006Em, symObjAddr: 0x11B24, symBinAddr: 0x100012480, symSize: 0x58 }
  - { offsetInCU: 0x21F41, offset: 0x21F41, size: 0x8, addend: 0x0, symName: __ZNSt3__116allocator_traitsINS_9allocatorIPNS_5tupleIJiiiEEEEEE8max_sizeB8ue170006IS5_vEEmRKS5_, symObjAddr: 0x11B7C, symBinAddr: 0x1000124D8, symSize: 0x24 }
  - { offsetInCU: 0x21F6F, offset: 0x21F6F, size: 0x8, addend: 0x0, symName: __ZNKSt3__19allocatorIPNS_5tupleIJiiiEEEE8max_sizeB8ue170006Ev, symObjAddr: 0x11BA0, symBinAddr: 0x1000124FC, symSize: 0x14 }
  - { offsetInCU: 0x21F95, offset: 0x21F95, size: 0x8, addend: 0x0, symName: __ZNSt3__122__allocator_destructorINS_9allocatorINS_5tupleIJiiiEEEEEEC2B8ue170006ERS4_m, symObjAddr: 0x11BB4, symBinAddr: 0x100012510, symSize: 0x2C }
  - { offsetInCU: 0x21FDB, offset: 0x21FDB, size: 0x8, addend: 0x0, symName: __ZNSt3__110unique_ptrIPNS_5tupleIJiiiEEENS_22__allocator_destructorINS_9allocatorIS2_EEEEEC2B8ue170006ILb1EvEES3_NS_16__dependent_typeINS_27__unique_ptr_deleter_sfinaeIS7_EEXT_EE20__good_rval_ref_typeE, symObjAddr: 0x11BE0, symBinAddr: 0x10001253C, symSize: 0x48 }
  - { offsetInCU: 0x2202C, offset: 0x2202C, size: 0x8, addend: 0x0, symName: __ZNSt3__117__compressed_pairIPNS_5tupleIJiiiEEENS_22__allocator_destructorINS_9allocatorIS2_EEEEEC1B8ue170006IRS3_S7_EEOT_OT0_, symObjAddr: 0x11C28, symBinAddr: 0x100012584, symSize: 0x3C }
  - { offsetInCU: 0x22084, offset: 0x22084, size: 0x8, addend: 0x0, symName: __ZNSt3__117__compressed_pairIPNS_5tupleIJiiiEEENS_22__allocator_destructorINS_9allocatorIS2_EEEEEC2B8ue170006IRS3_S7_EEOT_OT0_, symObjAddr: 0x11C64, symBinAddr: 0x1000125C0, symSize: 0x48 }
  - { offsetInCU: 0x220DC, offset: 0x220DC, size: 0x8, addend: 0x0, symName: __ZNSt3__122__compressed_pair_elemIPNS_5tupleIJiiiEEELi0ELb0EEC2B8ue170006IRS3_vEEOT_, symObjAddr: 0x11CAC, symBinAddr: 0x100012608, symSize: 0x24 }
  - { offsetInCU: 0x2211E, offset: 0x2211E, size: 0x8, addend: 0x0, symName: __ZNSt3__122__compressed_pair_elemINS_22__allocator_destructorINS_9allocatorINS_5tupleIJiiiEEEEEEELi1ELb0EEC2B8ue170006IS6_vEEOT_, symObjAddr: 0x11CD0, symBinAddr: 0x10001262C, symSize: 0x24 }
  - { offsetInCU: 0x22160, offset: 0x22160, size: 0x8, addend: 0x0, symName: __ZNKSt3__117__compressed_pairIPNS_5tupleIJiiiEEENS_22__allocator_destructorINS_9allocatorIS2_EEEEE5firstB8ue170006Ev, symObjAddr: 0x11CF4, symBinAddr: 0x100012650, symSize: 0x24 }
  - { offsetInCU: 0x22186, offset: 0x22186, size: 0x8, addend: 0x0, symName: __ZNKSt3__122__compressed_pair_elemIPNS_5tupleIJiiiEEELi0ELb0EE5__getB8ue170006Ev, symObjAddr: 0x11D18, symBinAddr: 0x100012674, symSize: 0x14 }
  - { offsetInCU: 0x221AC, offset: 0x221AC, size: 0x8, addend: 0x0, symName: __ZNSt3__117__compressed_pairIPNS_5tupleIJiiiEEENS_22__allocator_destructorINS_9allocatorIS2_EEEEE5firstB8ue170006Ev, symObjAddr: 0x11D2C, symBinAddr: 0x100012688, symSize: 0x24 }
  - { offsetInCU: 0x221D2, offset: 0x221D2, size: 0x8, addend: 0x0, symName: __ZNSt3__122__compressed_pair_elemIPNS_5tupleIJiiiEEELi0ELb0EE5__getB8ue170006Ev, symObjAddr: 0x11D50, symBinAddr: 0x1000126AC, symSize: 0x14 }
  - { offsetInCU: 0x221F8, offset: 0x221F8, size: 0x8, addend: 0x0, symName: __ZNSt3__117__compressed_pairIPPNS_5tupleIJiiiEEENS_9allocatorIS3_EEE5firstB8ue170006Ev, symObjAddr: 0x11D64, symBinAddr: 0x1000126C0, symSize: 0x24 }
  - { offsetInCU: 0x2221E, offset: 0x2221E, size: 0x8, addend: 0x0, symName: __ZNSt3__122__compressed_pair_elemIPPNS_5tupleIJiiiEEELi0ELb0EE5__getB8ue170006Ev, symObjAddr: 0x11D88, symBinAddr: 0x1000126E4, symSize: 0x14 }
  - { offsetInCU: 0x22244, offset: 0x22244, size: 0x8, addend: 0x0, symName: __ZNSt3__117__compressed_pairIPPNS_5tupleIJiiiEEERNS_9allocatorIS3_EEE5firstB8ue170006Ev, symObjAddr: 0x11D9C, symBinAddr: 0x1000126F8, symSize: 0x24 }
  - { offsetInCU: 0x2226A, offset: 0x2226A, size: 0x8, addend: 0x0, symName: __ZNSt3__110unique_ptrIPNS_5tupleIJiiiEEENS_22__allocator_destructorINS_9allocatorIS2_EEEEED2B8ue170006Ev, symObjAddr: 0x11DC0, symBinAddr: 0x10001271C, symSize: 0x30 }
  - { offsetInCU: 0x22294, offset: 0x22294, size: 0x8, addend: 0x0, symName: __ZNSt3__110unique_ptrIPNS_5tupleIJiiiEEENS_22__allocator_destructorINS_9allocatorIS2_EEEEE5resetB8ue170006ES3_, symObjAddr: 0x11DF0, symBinAddr: 0x10001274C, symSize: 0x78 }
  - { offsetInCU: 0x222D8, offset: 0x222D8, size: 0x8, addend: 0x0, symName: __ZNSt3__117__compressed_pairIPNS_5tupleIJiiiEEENS_22__allocator_destructorINS_9allocatorIS2_EEEEE6secondB8ue170006Ev, symObjAddr: 0x11E68, symBinAddr: 0x1000127C4, symSize: 0x28 }
  - { offsetInCU: 0x222FE, offset: 0x222FE, size: 0x8, addend: 0x0, symName: __ZNSt3__122__allocator_destructorINS_9allocatorINS_5tupleIJiiiEEEEEEclB8ue170006EPS3_, symObjAddr: 0x11E90, symBinAddr: 0x1000127EC, symSize: 0x34 }
  - { offsetInCU: 0x22332, offset: 0x22332, size: 0x8, addend: 0x0, symName: __ZNSt3__122__compressed_pair_elemINS_22__allocator_destructorINS_9allocatorINS_5tupleIJiiiEEEEEEELi1ELb0EE5__getB8ue170006Ev, symObjAddr: 0x11EC4, symBinAddr: 0x100012820, symSize: 0x14 }
  - { offsetInCU: 0x22358, offset: 0x22358, size: 0x8, addend: 0x0, symName: __ZNSt3__114__split_bufferIPNS_5tupleIJiiiEEERNS_9allocatorIS3_EEED2Ev, symObjAddr: 0x11ED8, symBinAddr: 0x100012834, symSize: 0x8C }
  - { offsetInCU: 0x22384, offset: 0x22384, size: 0x8, addend: 0x0, symName: __ZNSt3__114__split_bufferIPNS_5tupleIJiiiEEERNS_9allocatorIS3_EEE5clearB8ue170006Ev, symObjAddr: 0x11F64, symBinAddr: 0x1000128C0, symSize: 0x28 }
  - { offsetInCU: 0x223AA, offset: 0x223AA, size: 0x8, addend: 0x0, symName: __ZNKSt3__114__split_bufferIPNS_5tupleIJiiiEEERNS_9allocatorIS3_EEE8capacityB8ue170006Ev, symObjAddr: 0x11F8C, symBinAddr: 0x1000128E8, symSize: 0x40 }
  - { offsetInCU: 0x223D0, offset: 0x223D0, size: 0x8, addend: 0x0, symName: __ZNSt3__114__split_bufferIPNS_5tupleIJiiiEEERNS_9allocatorIS3_EEE17__destruct_at_endB8ue170006EPS3_, symObjAddr: 0x11FCC, symBinAddr: 0x100012928, symSize: 0x2C }
  - { offsetInCU: 0x22404, offset: 0x22404, size: 0x8, addend: 0x0, symName: __ZNSt3__114__split_bufferIPNS_5tupleIJiiiEEERNS_9allocatorIS3_EEE17__destruct_at_endB8ue170006EPS3_NS_17integral_constantIbLb0EEE, symObjAddr: 0x11FF8, symBinAddr: 0x100012954, symSize: 0x80 }
  - { offsetInCU: 0x22444, offset: 0x22444, size: 0x8, addend: 0x0, symName: __ZNKSt3__114__split_bufferIPNS_5tupleIJiiiEEERNS_9allocatorIS3_EEE9__end_capB8ue170006Ev, symObjAddr: 0x12078, symBinAddr: 0x1000129D4, symSize: 0x28 }
  - { offsetInCU: 0x2246A, offset: 0x2246A, size: 0x8, addend: 0x0, symName: __ZNKSt3__117__compressed_pairIPPNS_5tupleIJiiiEEERNS_9allocatorIS3_EEE5firstB8ue170006Ev, symObjAddr: 0x120A0, symBinAddr: 0x1000129FC, symSize: 0x24 }
  - { offsetInCU: 0x22490, offset: 0x22490, size: 0x8, addend: 0x0, symName: __ZNSt3__19allocatorINS_5tupleIJiiiEEEE9constructB8ue170006IS2_JS2_EEEvPT_DpOT0_, symObjAddr: 0x120C4, symBinAddr: 0x100012A20, symSize: 0x30 }
  - { offsetInCU: 0x224E6, offset: 0x224E6, size: 0x8, addend: 0x0, symName: __ZNSt3__15dequeINS_5tupleIJiiiEEENS_9allocatorIS2_EEE5frontEv, symObjAddr: 0x120F4, symBinAddr: 0x100012A50, symSize: 0x58 }
  - { offsetInCU: 0x2250E, offset: 0x2250E, size: 0x8, addend: 0x0, symName: __ZNSt3__15dequeINS_5tupleIJiiiEEENS_9allocatorIS2_EEE9pop_frontEv, symObjAddr: 0x1214C, symBinAddr: 0x100012AA8, symSize: 0xDC }
  - { offsetInCU: 0x22563, offset: 0x22563, size: 0x8, addend: 0x0, symName: __ZNKSt3__15dequeINS_5tupleIJiiiEEENS_9allocatorIS2_EEE23__annotate_shrink_frontB8ue170006Emm, symObjAddr: 0x12228, symBinAddr: 0x100012B84, symSize: 0x70 }
  - { offsetInCU: 0x225A7, offset: 0x225A7, size: 0x8, addend: 0x0, symName: __ZNSt3__15dequeINS_5tupleIJiiiEEENS_9allocatorIS2_EEE26__maybe_remove_front_spareB8ue170006Eb, symObjAddr: 0x12298, symBinAddr: 0x100012BF4, symSize: 0xEC }
  - { offsetInCU: 0x225DC, offset: 0x225DC, size: 0x8, addend: 0x0, symName: __ZNKSt3__15dequeINS_5tupleIJiiiEEENS_9allocatorIS2_EEE20__front_spare_blocksB8ue170006Ev, symObjAddr: 0x12384, symBinAddr: 0x100012CE0, symSize: 0x2C }
  - { offsetInCU: 0x22602, offset: 0x22602, size: 0x8, addend: 0x0, symName: __ZNKSt3__19basic_iosIcNS_11char_traitsIcEEE5widenB8ue170006Ec, symObjAddr: 0x123B0, symBinAddr: 0x100012D0C, symSize: 0x84 }
  - { offsetInCU: 0x2266B, offset: 0x2266B, size: 0x8, addend: 0x0, symName: __ZNKSt3__15ctypeIcE5widenB8ue170006Ec, symObjAddr: 0x12460, symBinAddr: 0x100012DBC, symSize: 0x38 }
...
