---
triple:          'arm64-apple-darwin'
binary-path:     '/Users/zoezhang/Documents/Home/C/2024/class/graphs/07_21/2017_Gol_Feb_1.exec'
relocations:
  - { offsetInCU: 0x3F, offset: 0x3F, size: 0x8, addend: 0x0, symName: _adj, symObjAddr: 0x332D0, symBinAddr: 0x10000C080, symSize: 0x0 }
  - { offsetInCU: 0x74, offset: 0x74, size: 0x8, addend: 0x0, symName: _dist, symObjAddr: 0x3CF10, symBinAddr: 0x100015CC0, symSize: 0x0 }
  - { offsetInCU: 0xA2, offset: 0xA2, size: 0x8, addend: 0x0, symName: _vis, symObjAddr: 0x50790, symBinAddr: 0x100029540, symSize: 0x0 }
  - { offsetInCU: 0xB7, offset: 0xB7, size: 0x8, addend: 0x0, symName: _dx, symObjAddr: 0x43D4, symBinAddr: 0x10000C000, symSize: 0x0 }
  - { offsetInCU: 0xD8, offset: 0xD8, size: 0x8, addend: 0x0, symName: _dy, symObjAddr: 0x4414, symBinAddr: 0x10000C040, symSize: 0x0 }
  - { offsetInCU: 0xED, offset: 0xED, size: 0x8, addend: 0x0, symName: _N, symObjAddr: 0x5A3D0, symBinAddr: 0x100033180, symSize: 0x0 }
  - { offsetInCU: 0x102, offset: 0x102, size: 0x8, addend: 0x0, symName: _T, symObjAddr: 0x5A3D4, symBinAddr: 0x100033184, symSize: 0x0 }
  - { offsetInCU: 0x123, offset: 0x123, size: 0x8, addend: 0x0, symName: _fout, symObjAddr: 0x5A3D8, symBinAddr: 0x100033188, symSize: 0x0 }
  - { offsetInCU: 0x70F8, offset: 0x70F8, size: 0x8, addend: 0x0, symName: __ZNSt3__117__floyd_sift_downB8ue170006INS_17_ClassicAlgPolicyERNS_4lessINS_5tupleIJiiiEEEEENS_11__wrap_iterIPS4_EEEET1_SA_OT0_NS_15iterator_traitsISA_E15difference_typeE, symObjAddr: 0x3E18, symBinAddr: 0x100007554, symSize: 0x148 }
  - { offsetInCU: 0x8153, offset: 0x8153, size: 0x8, addend: 0x0, symName: __ZNSt3__110make_tupleB8ue170006IJiRiS1_EEENS_5tupleIJDpNS_18__unwrap_ref_decayIT_E4typeEEEEDpOS4_, symObjAddr: 0x878, symBinAddr: 0x100003FB4, symSize: 0x94 }
  - { offsetInCU: 0x81B4, offset: 0x81B4, size: 0x8, addend: 0x0, symName: __ZNSt3__13getB8ue170006ILm1EJiiiEEERKNS_13tuple_elementIXT_ENS_5tupleIJDpT0_EEEE4typeERKS5_, symObjAddr: 0x934, symBinAddr: 0x100004070, symSize: 0x28 }
  - { offsetInCU: 0x8201, offset: 0x8201, size: 0x8, addend: 0x0, symName: __ZNSt3__13getB8ue170006ILm2EJiiiEEERKNS_13tuple_elementIXT_ENS_5tupleIJDpT0_EEEE4typeERKS5_, symObjAddr: 0x980, symBinAddr: 0x1000040BC, symSize: 0x28 }
  - { offsetInCU: 0x824E, offset: 0x824E, size: 0x8, addend: 0x0, symName: __ZNSt3__13minB8ue170006IxEERKT_S3_S3_, symObjAddr: 0x9F8, symBinAddr: 0x100004134, symSize: 0x2C }
  - { offsetInCU: 0x8291, offset: 0x8291, size: 0x8, addend: 0x0, symName: __ZNSt3__110make_tupleB8ue170006IJxRiS1_EEENS_5tupleIJDpNS_18__unwrap_ref_decayIT_E4typeEEEEDpOS4_, symObjAddr: 0xA24, symBinAddr: 0x100004160, symSize: 0x40 }
  - { offsetInCU: 0x85FD, offset: 0x85FD, size: 0x8, addend: 0x0, symName: __ZNSt3__14endlB8ue170006IcNS_11char_traitsIcEEEERNS_13basic_ostreamIT_T0_EES7_, symObjAddr: 0xC3C, symBinAddr: 0x100004378, symSize: 0x58 }
  - { offsetInCU: 0x8676, offset: 0x8676, size: 0x8, addend: 0x0, symName: __ZNSt3__13minB8ue170006IxNS_6__lessIvvEEEERKT_S5_S5_T0_, symObjAddr: 0xF68, symBinAddr: 0x1000046A4, symSize: 0x54 }
  - { offsetInCU: 0x8765, offset: 0x8765, size: 0x8, addend: 0x0, symName: __ZNSt3__13getB8ue170006ILm0EJxiiEEERNS_13tuple_elementIXT_ENS_5tupleIJDpT0_EEEE4typeERS5_, symObjAddr: 0x1214, symBinAddr: 0x100004950, symSize: 0x24 }
  - { offsetInCU: 0x87B1, offset: 0x87B1, size: 0x8, addend: 0x0, symName: __ZNSt3__13getB8ue170006ILm1EJxiiEEERNS_13tuple_elementIXT_ENS_5tupleIJDpT0_EEEE4typeERS5_, symObjAddr: 0x125C, symBinAddr: 0x100004998, symSize: 0x28 }
  - { offsetInCU: 0x87FD, offset: 0x87FD, size: 0x8, addend: 0x0, symName: __ZNSt3__13getB8ue170006ILm2EJxiiEEERNS_13tuple_elementIXT_ENS_5tupleIJDpT0_EEEE4typeERS5_, symObjAddr: 0x12A8, symBinAddr: 0x1000049E4, symSize: 0x28 }
  - { offsetInCU: 0x8849, offset: 0x8849, size: 0x8, addend: 0x0, symName: __ZNSt3__112__to_addressB8ue170006INS_5tupleIJiiiEEEEEPT_S4_, symObjAddr: 0x170C, symBinAddr: 0x100004E48, symSize: 0x14 }
  - { offsetInCU: 0x887E, offset: 0x887E, size: 0x8, addend: 0x0, symName: __ZNSt3__119__libcpp_deallocateB8ue170006EPvmm, symObjAddr: 0x17E8, symBinAddr: 0x100004F24, symSize: 0x30 }
  - { offsetInCU: 0x88C6, offset: 0x88C6, size: 0x8, addend: 0x0, symName: __ZNSt3__127__do_deallocate_handle_sizeB8ue170006IJEEEvPvmDpT_, symObjAddr: 0x1818, symBinAddr: 0x100004F54, symSize: 0x28 }
  - { offsetInCU: 0x8904, offset: 0x8904, size: 0x8, addend: 0x0, symName: __ZNSt3__124__libcpp_operator_deleteB8ue170006IJPvEEEvDpT_, symObjAddr: 0x1840, symBinAddr: 0x100004F7C, symSize: 0x24 }
  - { offsetInCU: 0x8939, offset: 0x8939, size: 0x8, addend: 0x0, symName: __ZNSt3__19push_heapB8ue170006INS_11__wrap_iterIPNS_5tupleIJiiiEEEEENS_4lessIS3_EEEEvT_S8_T0_, symObjAddr: 0x1CE8, symBinAddr: 0x100005424, symSize: 0x40 }
  - { offsetInCU: 0x898F, offset: 0x898F, size: 0x8, addend: 0x0, symName: __ZNSt3__13maxB8ue170006ImEERKT_S3_S3_, symObjAddr: 0x2338, symBinAddr: 0x100005A74, symSize: 0x2C }
  - { offsetInCU: 0x89D2, offset: 0x89D2, size: 0x8, addend: 0x0, symName: __ZNSt3__13minB8ue170006ImEERKT_S3_S3_, symObjAddr: 0x2364, symBinAddr: 0x100005AA0, symSize: 0x2C }
  - { offsetInCU: 0x8C16, offset: 0x8C16, size: 0x8, addend: 0x0, symName: __ZNSt3__13minB8ue170006ImNS_6__lessIvvEEEERKT_S5_S5_T0_, symObjAddr: 0x23F0, symBinAddr: 0x100005B2C, symSize: 0x54 }
  - { offsetInCU: 0x8C70, offset: 0x8C70, size: 0x8, addend: 0x0, symName: __ZNSt3__120__throw_length_errorB8ue170006EPKc, symObjAddr: 0x24D0, symBinAddr: 0x100005C0C, symSize: 0x64 }
  - { offsetInCU: 0x8C9A, offset: 0x8C9A, size: 0x8, addend: 0x0, symName: __ZNSt3__13maxB8ue170006ImNS_6__lessIvvEEEERKT_S5_S5_T0_, symObjAddr: 0x25B4, symBinAddr: 0x100005CF0, symSize: 0x54 }
  - { offsetInCU: 0x8CF4, offset: 0x8CF4, size: 0x8, addend: 0x0, symName: __ZNSt3__119__allocate_at_leastB8ue170006INS_9allocatorINS_5tupleIJiiiEEEEEEENS_19__allocation_resultINS_16allocator_traitsIT_E7pointerEEERS7_m, symObjAddr: 0x2724, symBinAddr: 0x100005E60, symSize: 0x40 }
  - { offsetInCU: 0x8D37, offset: 0x8D37, size: 0x8, addend: 0x0, symName: __ZNSt3__117__libcpp_allocateB8ue170006Emm, symObjAddr: 0x28AC, symBinAddr: 0x100005FE8, symSize: 0x28 }
  - { offsetInCU: 0x8D74, offset: 0x8D74, size: 0x8, addend: 0x0, symName: __ZNSt3__121__libcpp_operator_newB8ue170006IJmEEEPvDpT_, symObjAddr: 0x28D4, symBinAddr: 0x100006010, symSize: 0x24 }
  - { offsetInCU: 0x8DAD, offset: 0x8DAD, size: 0x8, addend: 0x0, symName: __ZNSt3__142__uninitialized_allocator_move_if_noexceptB8ue170006INS_9allocatorINS_5tupleIJiiiEEEEENS_16reverse_iteratorIPS3_EES7_S7_EET2_RT_T0_T1_S8_, symObjAddr: 0x295C, symBinAddr: 0x100006098, symSize: 0x12C }
  - { offsetInCU: 0x8E4D, offset: 0x8E4D, size: 0x8, addend: 0x0, symName: __ZNSt3__14swapB8ue170006IPNS_5tupleIJiiiEEEEENS_9enable_ifIXaasr21is_move_constructibleIT_EE5valuesr18is_move_assignableIS5_EE5valueEvE4typeERS5_S8_, symObjAddr: 0x2AD4, symBinAddr: 0x100006210, symSize: 0x3C }
  - { offsetInCU: 0x8E9E, offset: 0x8E9E, size: 0x8, addend: 0x0, symName: __ZNSt3__122__make_exception_guardB8ue170006INS_29_AllocatorDestroyRangeReverseINS_9allocatorINS_5tupleIJiiiEEEEENS_16reverse_iteratorIPS4_EEEEEENS_28__exception_guard_exceptionsIT_EESB_, symObjAddr: 0x2BD8, symBinAddr: 0x100006314, symSize: 0x4C }
  - { offsetInCU: 0x8ED4, offset: 0x8ED4, size: 0x8, addend: 0x0, symName: __ZNSt3__1neB8ue170006IPNS_5tupleIJiiiEEES3_EEbRKNS_16reverse_iteratorIT_EERKNS4_IT0_EE, symObjAddr: 0x2C68, symBinAddr: 0x1000063A4, symSize: 0x48 }
  - { offsetInCU: 0x8F20, offset: 0x8F20, size: 0x8, addend: 0x0, symName: __ZNSt3__112__to_addressB8ue170006INS_16reverse_iteratorIPNS_5tupleIJiiiEEEEEvEEu7__decayIDTclsr19__to_address_helperIT_EE6__callclsr3stdE7declvalIRKS6_EEEEES8_, symObjAddr: 0x2CB0, symBinAddr: 0x1000063EC, symSize: 0x24 }
  - { offsetInCU: 0x8F7F, offset: 0x8F7F, size: 0x8, addend: 0x0, symName: __ZNSt3__119__allocator_destroyB8ue170006INS_9allocatorINS_5tupleIJiiiEEEEENS_16reverse_iteratorINS5_IPS3_EEEES8_EEvRT_T0_T1_, symObjAddr: 0x2F60, symBinAddr: 0x10000669C, symSize: 0x70 }
  - { offsetInCU: 0x8FE4, offset: 0x8FE4, size: 0x8, addend: 0x0, symName: __ZNSt3__1neB8ue170006INS_16reverse_iteratorIPNS_5tupleIJiiiEEEEES5_EEbRKNS1_IT_EERKNS1_IT0_EE, symObjAddr: 0x300C, symBinAddr: 0x100006748, symSize: 0x60 }
  - { offsetInCU: 0x9030, offset: 0x9030, size: 0x8, addend: 0x0, symName: __ZNSt3__112__to_addressB8ue170006INS_16reverse_iteratorINS1_IPNS_5tupleIJiiiEEEEEEEvEEu7__decayIDTclsr19__to_address_helperIT_EE6__callclsr3stdE7declvalIRKS7_EEEEES9_, symObjAddr: 0x306C, symBinAddr: 0x1000067A8, symSize: 0x24 }
  - { offsetInCU: 0x908F, offset: 0x908F, size: 0x8, addend: 0x0, symName: __ZNSt3__111__push_heapB8ue170006INS_17_ClassicAlgPolicyENS_11__wrap_iterIPNS_5tupleIJiiiEEEEENS_4lessIS4_EEEEvT0_S9_RT1_, symObjAddr: 0x33D4, symBinAddr: 0x100006B10, symSize: 0x5C }
  - { offsetInCU: 0x90FC, offset: 0x90FC, size: 0x8, addend: 0x0, symName: __ZNSt3__1miB8ue170006IPNS_5tupleIJiiiEEES3_EEDTmicldtfp_4baseEcldtfp0_4baseEERKNS_11__wrap_iterIT_EERKNS5_IT0_EE, symObjAddr: 0x3430, symBinAddr: 0x100006B6C, symSize: 0x48 }
  - { offsetInCU: 0x9148, offset: 0x9148, size: 0x8, addend: 0x0, symName: __ZNSt3__19__sift_upB8ue170006INS_17_ClassicAlgPolicyERNS_4lessINS_5tupleIJiiiEEEEENS_11__wrap_iterIPS4_EEEEvT1_SA_OT0_NS_15iterator_traitsISA_E15difference_typeE, symObjAddr: 0x3478, symBinAddr: 0x100006BB4, symSize: 0x164 }
  - { offsetInCU: 0x926B, offset: 0x926B, size: 0x8, addend: 0x0, symName: __ZNSt3__1ltB8ue170006IJiiiEJiiiEEEbRKNS_5tupleIJDpT_EEERKNS1_IJDpT0_EEE, symObjAddr: 0x3730, symBinAddr: 0x100006E6C, symSize: 0x34 }
  - { offsetInCU: 0x9319, offset: 0x9319, size: 0x8, addend: 0x0, symName: __ZNSt3__13getB8ue170006ILm0EJiiiEEERKNS_13tuple_elementIXT_ENS_5tupleIJDpT0_EEEE4typeERKS5_, symObjAddr: 0x383C, symBinAddr: 0x100006F78, symSize: 0x24 }
  - { offsetInCU: 0x943B, offset: 0x943B, size: 0x8, addend: 0x0, symName: __ZNSt3__127__memberwise_forward_assignB8ue170006INS_5tupleIJiiiEEES2_JiiiEJLm0ELm1ELm2EEEEvRT_OT0_NS_13__tuple_typesIJDpT1_EEENS_15__tuple_indicesIJXspT2_EEEE, symObjAddr: 0x3A50, symBinAddr: 0x10000718C, symSize: 0xB0 }
  - { offsetInCU: 0x94C9, offset: 0x94C9, size: 0x8, addend: 0x0, symName: __ZNSt3__19__swallowB8ue170006IJiiiEEEvDpOT_, symObjAddr: 0x3B00, symBinAddr: 0x10000723C, symSize: 0x18 }
  - { offsetInCU: 0x951A, offset: 0x951A, size: 0x8, addend: 0x0, symName: __ZNSt3__13getB8ue170006ILm0EJiiiEEERNS_13tuple_elementIXT_ENS_5tupleIJDpT0_EEEE4typeERS5_, symObjAddr: 0x3B18, symBinAddr: 0x100007254, symSize: 0x24 }
  - { offsetInCU: 0x9567, offset: 0x9567, size: 0x8, addend: 0x0, symName: __ZNSt3__13getB8ue170006ILm1EJiiiEEERNS_13tuple_elementIXT_ENS_5tupleIJDpT0_EEEE4typeERS5_, symObjAddr: 0x3B3C, symBinAddr: 0x100007278, symSize: 0x28 }
  - { offsetInCU: 0x95B4, offset: 0x95B4, size: 0x8, addend: 0x0, symName: __ZNSt3__13getB8ue170006ILm2EJiiiEEERNS_13tuple_elementIXT_ENS_5tupleIJDpT0_EEEE4typeERS5_, symObjAddr: 0x3B64, symBinAddr: 0x1000072A0, symSize: 0x28 }
  - { offsetInCU: 0x9601, offset: 0x9601, size: 0x8, addend: 0x0, symName: __ZNSt3__18pop_heapB8ue170006INS_11__wrap_iterIPNS_5tupleIJiiiEEEEENS_4lessIS3_EEEEvT_S8_T0_, symObjAddr: 0x3C64, symBinAddr: 0x1000073A0, symSize: 0x58 }
  - { offsetInCU: 0x9665, offset: 0x9665, size: 0x8, addend: 0x0, symName: __ZNSt3__110__pop_heapB8ue170006INS_17_ClassicAlgPolicyENS_4lessINS_5tupleIJiiiEEEEENS_11__wrap_iterIPS4_EEEEvT1_S9_RT0_NS_15iterator_traitsIS9_E15difference_typeE, symObjAddr: 0x3CE8, symBinAddr: 0x100007424, symSize: 0x130 }
  - { offsetInCU: 0x9715, offset: 0x9715, size: 0x8, addend: 0x0, symName: __ZNSt3__1eqB8ue170006IPNS_5tupleIJiiiEEEEEbRKNS_11__wrap_iterIT_EES8_, symObjAddr: 0x3F60, symBinAddr: 0x10000769C, symSize: 0x48 }
  - { offsetInCU: 0x9758, offset: 0x9758, size: 0x8, addend: 0x0, symName: __ZNSt3__19use_facetB8ue170006INS_5ctypeIcEEEERKT_RKNS_6localeE, symObjAddr: 0x4168, symBinAddr: 0x1000078A4, symSize: 0x2C }
  - { offsetInCU: 0x9E9F, offset: 0x9E9F, size: 0x8, addend: 0x0, symName: __ZSt28__throw_bad_array_new_lengthB8ue170006v, symObjAddr: 0x2878, symBinAddr: 0x100005FB4, symSize: 0x34 }
  - { offsetInCU: 0xA51F, offset: 0xA51F, size: 0x8, addend: 0x0, symName: _fin, symObjAddr: 0x5A610, symBinAddr: 0x1000333C0, symSize: 0x0 }
  - { offsetInCU: 0xA81D, offset: 0xA81D, size: 0x8, addend: 0x0, symName: __ZNSt3__16vectorINS_5tupleIJiiiEEENS_9allocatorIS2_EEE26__swap_out_circular_bufferERNS_14__split_bufferIS2_RS4_EE, symObjAddr: 0x2180, symBinAddr: 0x1000058BC, symSize: 0x110 }
  - { offsetInCU: 0xCA22, offset: 0xCA22, size: 0x8, addend: 0x0, symName: __ZNSt3__114basic_ofstreamIcNS_11char_traitsIcEEEC1EPKcj, symObjAddr: 0x0, symBinAddr: 0x10000373C, symSize: 0x16C }
  - { offsetInCU: 0xCA71, offset: 0xCA71, size: 0x8, addend: 0x0, symName: __ZNSt3__114basic_ofstreamIcNS_11char_traitsIcEEED1Ev, symObjAddr: 0x16C, symBinAddr: 0x1000038A8, symSize: 0x40 }
  - { offsetInCU: 0xCA9E, offset: 0xCA9E, size: 0x8, addend: 0x0, symName: __ZNSt3__114basic_ifstreamIcNS_11char_traitsIcEEEC1EPKcj, symObjAddr: 0x1AC, symBinAddr: 0x1000038E8, symSize: 0x16C }
  - { offsetInCU: 0xCAED, offset: 0xCAED, size: 0x8, addend: 0x0, symName: __ZNSt3__114basic_ifstreamIcNS_11char_traitsIcEEED1Ev, symObjAddr: 0x318, symBinAddr: 0x100003A54, symSize: 0x40 }
  - { offsetInCU: 0xCB19, offset: 0xCB19, size: 0x8, addend: 0x0, symName: __Z3dijii, symObjAddr: 0x358, symBinAddr: 0x100003A94, symSize: 0x49C }
  - { offsetInCU: 0xCC21, offset: 0xCC21, size: 0x8, addend: 0x0, symName: __ZNSt3__114priority_queueINS_5tupleIJiiiEEENS_6vectorIS2_NS_9allocatorIS2_EEEENS_4lessIS2_EEEC1B8ue170006Ev, symObjAddr: 0x7F4, symBinAddr: 0x100003F30, symSize: 0x2C }
  - { offsetInCU: 0xCC4B, offset: 0xCC4B, size: 0x8, addend: 0x0, symName: __ZNSt3__114priority_queueINS_5tupleIJiiiEEENS_6vectorIS2_NS_9allocatorIS2_EEEENS_4lessIS2_EEE4pushEOS2_, symObjAddr: 0x820, symBinAddr: 0x100003F5C, symSize: 0x58 }
  - { offsetInCU: 0xCC82, offset: 0xCC82, size: 0x8, addend: 0x0, symName: __ZNKSt3__114priority_queueINS_5tupleIJiiiEEENS_6vectorIS2_NS_9allocatorIS2_EEEENS_4lessIS2_EEE5emptyB8ue170006Ev, symObjAddr: 0x90C, symBinAddr: 0x100004048, symSize: 0x28 }
  - { offsetInCU: 0xCCA8, offset: 0xCCA8, size: 0x8, addend: 0x0, symName: __ZNKSt3__114priority_queueINS_5tupleIJiiiEEENS_6vectorIS2_NS_9allocatorIS2_EEEENS_4lessIS2_EEE3topB8ue170006Ev, symObjAddr: 0x95C, symBinAddr: 0x100004098, symSize: 0x24 }
  - { offsetInCU: 0xCCCE, offset: 0xCCCE, size: 0x8, addend: 0x0, symName: __ZNSt3__114priority_queueINS_5tupleIJiiiEEENS_6vectorIS2_NS_9allocatorIS2_EEEENS_4lessIS2_EEE3popEv, symObjAddr: 0x9A8, symBinAddr: 0x1000040E4, symSize: 0x50 }
  - { offsetInCU: 0xCD55, offset: 0xCD55, size: 0x8, addend: 0x0, symName: __ZNSt3__15tupleIJiiiEEC1B8ue170006IJxiiELi0EEEONS0_IJDpT_EEE, symObjAddr: 0xA64, symBinAddr: 0x1000041A0, symSize: 0x34 }
  - { offsetInCU: 0xCDA9, offset: 0xCDA9, size: 0x8, addend: 0x0, symName: __ZNSt3__114priority_queueINS_5tupleIJiiiEEENS_6vectorIS2_NS_9allocatorIS2_EEEENS_4lessIS2_EEED1Ev, symObjAddr: 0xA98, symBinAddr: 0x1000041D4, symSize: 0x2C }
  - { offsetInCU: 0xCDD6, offset: 0xCDD6, size: 0x8, addend: 0x0, symName: _main, symObjAddr: 0xAC4, symBinAddr: 0x100004200, symSize: 0x14C }
  - { offsetInCU: 0xCE45, offset: 0xCE45, size: 0x8, addend: 0x0, symName: __ZNSt3__113basic_ostreamIcNS_11char_traitsIcEEElsB8ue170006EPFRS3_S4_E, symObjAddr: 0xC10, symBinAddr: 0x10000434C, symSize: 0x2C }
  - { offsetInCU: 0xCE79, offset: 0xCE79, size: 0x8, addend: 0x0, symName: __ZNSt3__114basic_ofstreamIcNS_11char_traitsIcEEED2Ev, symObjAddr: 0xC94, symBinAddr: 0x1000043D0, symSize: 0x64 }
  - { offsetInCU: 0xCEB3, offset: 0xCEB3, size: 0x8, addend: 0x0, symName: __ZTv0_n24_NSt3__114basic_ofstreamIcNS_11char_traitsIcEEED1Ev, symObjAddr: 0xCF8, symBinAddr: 0x100004434, symSize: 0x28 }
  - { offsetInCU: 0xCECA, offset: 0xCECA, size: 0x8, addend: 0x0, symName: __ZNSt3__114basic_ifstreamIcNS_11char_traitsIcEEED2Ev, symObjAddr: 0xD20, symBinAddr: 0x10000445C, symSize: 0x64 }
  - { offsetInCU: 0xCF04, offset: 0xCF04, size: 0x8, addend: 0x0, symName: __ZTv0_n24_NSt3__114basic_ifstreamIcNS_11char_traitsIcEEED1Ev, symObjAddr: 0xD84, symBinAddr: 0x1000044C0, symSize: 0x28 }
  - { offsetInCU: 0xCF20, offset: 0xCF20, size: 0x8, addend: 0x0, symName: __ZNSt3__15tupleIJiiiEEC1B8ue170006IJiRiS3_ELi0EEEDpOT_, symObjAddr: 0xDAC, symBinAddr: 0x1000044E8, symSize: 0x44 }
  - { offsetInCU: 0xCF92, offset: 0xCF92, size: 0x8, addend: 0x0, symName: __ZNSt3__15tupleIJiiiEEC2B8ue170006IJiRiS3_ELi0EEEDpOT_, symObjAddr: 0xDF0, symBinAddr: 0x10000452C, symSize: 0x44 }
  - { offsetInCU: 0xD004, offset: 0xD004, size: 0x8, addend: 0x0, symName: __ZNSt3__112__tuple_implINS_15__tuple_indicesIJLm0ELm1ELm2EEEEJiiiEEC1B8ue170006IJLm0ELm1ELm2EEJiiiEJEJEJiRiS5_EEENS1_IJXspT_EEEENS_13__tuple_typesIJDpT0_EEENS1_IJXspT1_EEEENS7_IJDpT2_EEEDpOT3_, symObjAddr: 0xE34, symBinAddr: 0x100004570, symSize: 0x44 }
  - { offsetInCU: 0xD0D3, offset: 0xD0D3, size: 0x8, addend: 0x0, symName: __ZNSt3__112__tuple_implINS_15__tuple_indicesIJLm0ELm1ELm2EEEEJiiiEEC2B8ue170006IJLm0ELm1ELm2EEJiiiEJEJEJiRiS5_EEENS1_IJXspT_EEEENS_13__tuple_typesIJDpT0_EEENS1_IJXspT1_EEEENS7_IJDpT2_EEEDpOT3_, symObjAddr: 0xE78, symBinAddr: 0x1000045B4, symSize: 0x5C }
  - { offsetInCU: 0xD1A2, offset: 0xD1A2, size: 0x8, addend: 0x0, symName: __ZNSt3__112__tuple_leafILm0EiLb0EEC2B8ue170006IivEEOT_, symObjAddr: 0xED4, symBinAddr: 0x100004610, symSize: 0x24 }
  - { offsetInCU: 0xD1E5, offset: 0xD1E5, size: 0x8, addend: 0x0, symName: __ZNSt3__112__tuple_leafILm1EiLb0EEC2B8ue170006IRivEEOT_, symObjAddr: 0xEF8, symBinAddr: 0x100004634, symSize: 0x24 }
  - { offsetInCU: 0xD228, offset: 0xD228, size: 0x8, addend: 0x0, symName: __ZNSt3__112__tuple_leafILm2EiLb0EEC2B8ue170006IRivEEOT_, symObjAddr: 0xF1C, symBinAddr: 0x100004658, symSize: 0x24 }
  - { offsetInCU: 0xD26B, offset: 0xD26B, size: 0x8, addend: 0x0, symName: __ZNKSt3__112__tuple_leafILm1EiLb0EE3getB8ue170006Ev, symObjAddr: 0xF40, symBinAddr: 0x10000467C, symSize: 0x14 }
  - { offsetInCU: 0xD291, offset: 0xD291, size: 0x8, addend: 0x0, symName: __ZNKSt3__112__tuple_leafILm2EiLb0EE3getB8ue170006Ev, symObjAddr: 0xF54, symBinAddr: 0x100004690, symSize: 0x14 }
  - { offsetInCU: 0xD2C1, offset: 0xD2C1, size: 0x8, addend: 0x0, symName: __ZNKSt3__16__lessIvvEclB8ue170006IxxEEbRKT_RKT0_, symObjAddr: 0xFBC, symBinAddr: 0x1000046F8, symSize: 0x34 }
  - { offsetInCU: 0xD31A, offset: 0xD31A, size: 0x8, addend: 0x0, symName: __ZNSt3__15tupleIJxiiEEC1B8ue170006IJxRiS3_ELi0EEEDpOT_, symObjAddr: 0xFF0, symBinAddr: 0x10000472C, symSize: 0x44 }
  - { offsetInCU: 0xD38C, offset: 0xD38C, size: 0x8, addend: 0x0, symName: __ZNSt3__15tupleIJxiiEEC2B8ue170006IJxRiS3_ELi0EEEDpOT_, symObjAddr: 0x1034, symBinAddr: 0x100004770, symSize: 0x44 }
  - { offsetInCU: 0xD3FE, offset: 0xD3FE, size: 0x8, addend: 0x0, symName: __ZNSt3__112__tuple_implINS_15__tuple_indicesIJLm0ELm1ELm2EEEEJxiiEEC1B8ue170006IJLm0ELm1ELm2EEJxiiEJEJEJxRiS5_EEENS1_IJXspT_EEEENS_13__tuple_typesIJDpT0_EEENS1_IJXspT1_EEEENS7_IJDpT2_EEEDpOT3_, symObjAddr: 0x1078, symBinAddr: 0x1000047B4, symSize: 0x44 }
  - { offsetInCU: 0xD4CD, offset: 0xD4CD, size: 0x8, addend: 0x0, symName: __ZNSt3__112__tuple_implINS_15__tuple_indicesIJLm0ELm1ELm2EEEEJxiiEEC2B8ue170006IJLm0ELm1ELm2EEJxiiEJEJEJxRiS5_EEENS1_IJXspT_EEEENS_13__tuple_typesIJDpT0_EEENS1_IJXspT1_EEEENS7_IJDpT2_EEEDpOT3_, symObjAddr: 0x10BC, symBinAddr: 0x1000047F8, symSize: 0x5C }
  - { offsetInCU: 0xD59C, offset: 0xD59C, size: 0x8, addend: 0x0, symName: __ZNSt3__112__tuple_leafILm0ExLb0EEC2B8ue170006IxvEEOT_, symObjAddr: 0x1118, symBinAddr: 0x100004854, symSize: 0x24 }
  - { offsetInCU: 0xD5DF, offset: 0xD5DF, size: 0x8, addend: 0x0, symName: __ZNSt3__15tupleIJiiiEEC2B8ue170006IJxiiELi0EEEONS0_IJDpT_EEE, symObjAddr: 0x113C, symBinAddr: 0x100004878, symSize: 0x34 }
  - { offsetInCU: 0xD633, offset: 0xD633, size: 0x8, addend: 0x0, symName: __ZNSt3__112__tuple_implINS_15__tuple_indicesIJLm0ELm1ELm2EEEEJiiiEEC1B8ue170006INS_5tupleIJxiiEEEvEEOT_, symObjAddr: 0x1170, symBinAddr: 0x1000048AC, symSize: 0x34 }
  - { offsetInCU: 0xD676, offset: 0xD676, size: 0x8, addend: 0x0, symName: __ZNSt3__112__tuple_implINS_15__tuple_indicesIJLm0ELm1ELm2EEEEJiiiEEC2B8ue170006INS_5tupleIJxiiEEEvEEOT_, symObjAddr: 0x11A4, symBinAddr: 0x1000048E0, symSize: 0x70 }
  - { offsetInCU: 0xD6B9, offset: 0xD6B9, size: 0x8, addend: 0x0, symName: __ZNSt3__112__tuple_leafILm0EiLb0EEC2B8ue170006IxvEEOT_, symObjAddr: 0x1238, symBinAddr: 0x100004974, symSize: 0x24 }
  - { offsetInCU: 0xD6FC, offset: 0xD6FC, size: 0x8, addend: 0x0, symName: __ZNSt3__112__tuple_leafILm1EiLb0EEC2B8ue170006IivEEOT_, symObjAddr: 0x1284, symBinAddr: 0x1000049C0, symSize: 0x24 }
  - { offsetInCU: 0xD73F, offset: 0xD73F, size: 0x8, addend: 0x0, symName: __ZNSt3__112__tuple_leafILm2EiLb0EEC2B8ue170006IivEEOT_, symObjAddr: 0x12D0, symBinAddr: 0x100004A0C, symSize: 0x24 }
  - { offsetInCU: 0xD782, offset: 0xD782, size: 0x8, addend: 0x0, symName: __ZNSt3__112__tuple_leafILm0ExLb0EE3getB8ue170006Ev, symObjAddr: 0x12F4, symBinAddr: 0x100004A30, symSize: 0x14 }
  - { offsetInCU: 0xD7A8, offset: 0xD7A8, size: 0x8, addend: 0x0, symName: __ZNSt3__112__tuple_leafILm1EiLb0EE3getB8ue170006Ev, symObjAddr: 0x1308, symBinAddr: 0x100004A44, symSize: 0x14 }
  - { offsetInCU: 0xD7CE, offset: 0xD7CE, size: 0x8, addend: 0x0, symName: __ZNSt3__112__tuple_leafILm2EiLb0EE3getB8ue170006Ev, symObjAddr: 0x131C, symBinAddr: 0x100004A58, symSize: 0x14 }
  - { offsetInCU: 0xD7F4, offset: 0xD7F4, size: 0x8, addend: 0x0, symName: __ZNSt3__114priority_queueINS_5tupleIJiiiEEENS_6vectorIS2_NS_9allocatorIS2_EEEENS_4lessIS2_EEED2Ev, symObjAddr: 0x1330, symBinAddr: 0x100004A6C, symSize: 0x2C }
  - { offsetInCU: 0xD821, offset: 0xD821, size: 0x8, addend: 0x0, symName: __ZNSt3__16vectorINS_5tupleIJiiiEEENS_9allocatorIS2_EEED1B8ue170006Ev, symObjAddr: 0x135C, symBinAddr: 0x100004A98, symSize: 0x2C }
  - { offsetInCU: 0xD84B, offset: 0xD84B, size: 0x8, addend: 0x0, symName: __ZNSt3__16vectorINS_5tupleIJiiiEEENS_9allocatorIS2_EEED2B8ue170006Ev, symObjAddr: 0x1388, symBinAddr: 0x100004AC4, symSize: 0x44 }
  - { offsetInCU: 0xD875, offset: 0xD875, size: 0x8, addend: 0x0, symName: __ZNSt3__16vectorINS_5tupleIJiiiEEENS_9allocatorIS2_EEE16__destroy_vectorC1B8ue170006ERS5_, symObjAddr: 0x13CC, symBinAddr: 0x100004B08, symSize: 0x34 }
  - { offsetInCU: 0xD8AE, offset: 0xD8AE, size: 0x8, addend: 0x0, symName: __ZNSt3__16vectorINS_5tupleIJiiiEEENS_9allocatorIS2_EEE16__destroy_vectorclB8ue170006Ev, symObjAddr: 0x140C, symBinAddr: 0x100004B48, symSize: 0x90 }
  - { offsetInCU: 0xD8D4, offset: 0xD8D4, size: 0x8, addend: 0x0, symName: __ZNSt3__16vectorINS_5tupleIJiiiEEENS_9allocatorIS2_EEE16__destroy_vectorC2B8ue170006ERS5_, symObjAddr: 0x149C, symBinAddr: 0x100004BD8, symSize: 0x20 }
  - { offsetInCU: 0xD90D, offset: 0xD90D, size: 0x8, addend: 0x0, symName: __ZNSt3__16vectorINS_5tupleIJiiiEEENS_9allocatorIS2_EEE7__clearB8ue170006Ev, symObjAddr: 0x14BC, symBinAddr: 0x100004BF8, symSize: 0x28 }
  - { offsetInCU: 0xD933, offset: 0xD933, size: 0x8, addend: 0x0, symName: __ZNKSt3__16vectorINS_5tupleIJiiiEEENS_9allocatorIS2_EEE17__annotate_deleteB8ue170006Ev, symObjAddr: 0x14E4, symBinAddr: 0x100004C20, symSize: 0xD4 }
  - { offsetInCU: 0xD959, offset: 0xD959, size: 0x8, addend: 0x0, symName: __ZNSt3__116allocator_traitsINS_9allocatorINS_5tupleIJiiiEEEEEE10deallocateB8ue170006ERS4_PS3_m, symObjAddr: 0x15B8, symBinAddr: 0x100004CF4, symSize: 0x34 }
  - { offsetInCU: 0xD99B, offset: 0xD99B, size: 0x8, addend: 0x0, symName: __ZNSt3__16vectorINS_5tupleIJiiiEEENS_9allocatorIS2_EEE7__allocB8ue170006Ev, symObjAddr: 0x15EC, symBinAddr: 0x100004D28, symSize: 0x28 }
  - { offsetInCU: 0xD9C1, offset: 0xD9C1, size: 0x8, addend: 0x0, symName: __ZNKSt3__16vectorINS_5tupleIJiiiEEENS_9allocatorIS2_EEE8capacityB8ue170006Ev, symObjAddr: 0x1614, symBinAddr: 0x100004D50, symSize: 0x40 }
  - { offsetInCU: 0xD9E7, offset: 0xD9E7, size: 0x8, addend: 0x0, symName: __ZNSt3__16vectorINS_5tupleIJiiiEEENS_9allocatorIS2_EEE22__base_destruct_at_endB8ue170006EPS2_, symObjAddr: 0x1654, symBinAddr: 0x100004D90, symSize: 0x8C }
  - { offsetInCU: 0xDA2B, offset: 0xDA2B, size: 0x8, addend: 0x0, symName: __ZNSt3__116allocator_traitsINS_9allocatorINS_5tupleIJiiiEEEEEE7destroyB8ue170006IS3_vEEvRS4_PT_, symObjAddr: 0x16E0, symBinAddr: 0x100004E1C, symSize: 0x2C }
  - { offsetInCU: 0xDA68, offset: 0xDA68, size: 0x8, addend: 0x0, symName: __ZNSt3__19allocatorINS_5tupleIJiiiEEEE7destroyB8ue170006EPS2_, symObjAddr: 0x1720, symBinAddr: 0x100004E5C, symSize: 0x14 }
  - { offsetInCU: 0xDA9C, offset: 0xDA9C, size: 0x8, addend: 0x0, symName: __ZNKSt3__16vectorINS_5tupleIJiiiEEENS_9allocatorIS2_EEE31__annotate_contiguous_containerB8ue170006EPKvS7_S7_S7_, symObjAddr: 0x1734, symBinAddr: 0x100004E70, symSize: 0x20 }
  - { offsetInCU: 0xDAEE, offset: 0xDAEE, size: 0x8, addend: 0x0, symName: __ZNKSt3__16vectorINS_5tupleIJiiiEEENS_9allocatorIS2_EEE4dataB8ue170006Ev, symObjAddr: 0x1754, symBinAddr: 0x100004E90, symSize: 0x28 }
  - { offsetInCU: 0xDB14, offset: 0xDB14, size: 0x8, addend: 0x0, symName: __ZNKSt3__16vectorINS_5tupleIJiiiEEENS_9allocatorIS2_EEE4sizeB8ue170006Ev, symObjAddr: 0x177C, symBinAddr: 0x100004EB8, symSize: 0x28 }
  - { offsetInCU: 0xDB3A, offset: 0xDB3A, size: 0x8, addend: 0x0, symName: __ZNSt3__19allocatorINS_5tupleIJiiiEEEE10deallocateB8ue170006EPS2_m, symObjAddr: 0x17A4, symBinAddr: 0x100004EE0, symSize: 0x44 }
  - { offsetInCU: 0xDB7C, offset: 0xDB7C, size: 0x8, addend: 0x0, symName: __ZNSt3__117__compressed_pairIPNS_5tupleIJiiiEEENS_9allocatorIS2_EEE6secondB8ue170006Ev, symObjAddr: 0x1864, symBinAddr: 0x100004FA0, symSize: 0x24 }
  - { offsetInCU: 0xDBA2, offset: 0xDBA2, size: 0x8, addend: 0x0, symName: __ZNSt3__122__compressed_pair_elemINS_9allocatorINS_5tupleIJiiiEEEEELi1ELb1EE5__getB8ue170006Ev, symObjAddr: 0x1888, symBinAddr: 0x100004FC4, symSize: 0x14 }
  - { offsetInCU: 0xDBC8, offset: 0xDBC8, size: 0x8, addend: 0x0, symName: __ZNKSt3__16vectorINS_5tupleIJiiiEEENS_9allocatorIS2_EEE9__end_capB8ue170006Ev, symObjAddr: 0x189C, symBinAddr: 0x100004FD8, symSize: 0x28 }
  - { offsetInCU: 0xDBEE, offset: 0xDBEE, size: 0x8, addend: 0x0, symName: __ZNKSt3__117__compressed_pairIPNS_5tupleIJiiiEEENS_9allocatorIS2_EEE5firstB8ue170006Ev, symObjAddr: 0x18C4, symBinAddr: 0x100005000, symSize: 0x24 }
  - { offsetInCU: 0xDC14, offset: 0xDC14, size: 0x8, addend: 0x0, symName: __ZNKSt3__122__compressed_pair_elemIPNS_5tupleIJiiiEEELi0ELb0EE5__getB8ue170006Ev, symObjAddr: 0x18E8, symBinAddr: 0x100005024, symSize: 0x14 }
  - { offsetInCU: 0xDC3A, offset: 0xDC3A, size: 0x8, addend: 0x0, symName: __ZNSt3__19basic_iosIcNS_11char_traitsIcEEEC2B8ue170006Ev, symObjAddr: 0x18FC, symBinAddr: 0x100005038, symSize: 0x44 }
  - { offsetInCU: 0xDC64, offset: 0xDC64, size: 0x8, addend: 0x0, symName: __ZNSt3__113basic_ostreamIcNS_11char_traitsIcEEEC2B8ue170006EPNS_15basic_streambufIcS2_EE, symObjAddr: 0x1940, symBinAddr: 0x10000507C, symSize: 0x60 }
  - { offsetInCU: 0xDCA9, offset: 0xDCA9, size: 0x8, addend: 0x0, symName: __ZNSt3__19basic_iosIcNS_11char_traitsIcEEE8setstateB8ue170006Ej, symObjAddr: 0x19A0, symBinAddr: 0x1000050DC, symSize: 0x2C }
  - { offsetInCU: 0xDCDE, offset: 0xDCDE, size: 0x8, addend: 0x0, symName: __ZNSt3__18ios_baseC2B8ue170006Ev, symObjAddr: 0x19CC, symBinAddr: 0x100005108, symSize: 0x24 }
  - { offsetInCU: 0xDD08, offset: 0xDD08, size: 0x8, addend: 0x0, symName: __ZNSt3__19basic_iosIcNS_11char_traitsIcEEE4initB8ue170006EPNS_15basic_streambufIcS2_EE, symObjAddr: 0x19F0, symBinAddr: 0x10000512C, symSize: 0x44 }
  - { offsetInCU: 0xDD3F, offset: 0xDD3F, size: 0x8, addend: 0x0, symName: __ZNSt3__111char_traitsIcE3eofB8ue170006Ev, symObjAddr: 0x1A34, symBinAddr: 0x100005170, symSize: 0x8 }
  - { offsetInCU: 0xDD53, offset: 0xDD53, size: 0x8, addend: 0x0, symName: __ZNSt3__18ios_base8setstateB8ue170006Ej, symObjAddr: 0x1A3C, symBinAddr: 0x100005178, symSize: 0x34 }
  - { offsetInCU: 0xDD8A, offset: 0xDD8A, size: 0x8, addend: 0x0, symName: __ZNSt3__113basic_istreamIcNS_11char_traitsIcEEEC2B8ue170006EPNS_15basic_streambufIcS2_EE, symObjAddr: 0x1A70, symBinAddr: 0x1000051AC, symSize: 0x64 }
  - { offsetInCU: 0xDDCF, offset: 0xDDCF, size: 0x8, addend: 0x0, symName: __ZNSt3__114priority_queueINS_5tupleIJiiiEEENS_6vectorIS2_NS_9allocatorIS2_EEEENS_4lessIS2_EEEC2B8ue170006Ev, symObjAddr: 0x1AD4, symBinAddr: 0x100005210, symSize: 0x2C }
  - { offsetInCU: 0xDDF9, offset: 0xDDF9, size: 0x8, addend: 0x0, symName: __ZNSt3__16vectorINS_5tupleIJiiiEEENS_9allocatorIS2_EEEC1B8ue170006Ev, symObjAddr: 0x1B00, symBinAddr: 0x10000523C, symSize: 0x2C }
  - { offsetInCU: 0xDE23, offset: 0xDE23, size: 0x8, addend: 0x0, symName: __ZNSt3__16vectorINS_5tupleIJiiiEEENS_9allocatorIS2_EEEC2B8ue170006Ev, symObjAddr: 0x1B2C, symBinAddr: 0x100005268, symSize: 0x4C }
  - { offsetInCU: 0xDE57, offset: 0xDE57, size: 0x8, addend: 0x0, symName: __ZNSt3__117__compressed_pairIPNS_5tupleIJiiiEEENS_9allocatorIS2_EEEC1B8ue170006IDnNS_18__default_init_tagEEEOT_OT0_, symObjAddr: 0x1B78, symBinAddr: 0x1000052B4, symSize: 0x3C }
  - { offsetInCU: 0xDEAF, offset: 0xDEAF, size: 0x8, addend: 0x0, symName: __ZNSt3__117__compressed_pairIPNS_5tupleIJiiiEEENS_9allocatorIS2_EEEC2B8ue170006IDnNS_18__default_init_tagEEEOT_OT0_, symObjAddr: 0x1BB4, symBinAddr: 0x1000052F0, symSize: 0x40 }
  - { offsetInCU: 0xDF07, offset: 0xDF07, size: 0x8, addend: 0x0, symName: __ZNSt3__122__compressed_pair_elemIPNS_5tupleIJiiiEEELi0ELb0EEC2B8ue170006IDnvEEOT_, symObjAddr: 0x1BF4, symBinAddr: 0x100005330, symSize: 0x1C }
  - { offsetInCU: 0xDF49, offset: 0xDF49, size: 0x8, addend: 0x0, symName: __ZNSt3__122__compressed_pair_elemINS_9allocatorINS_5tupleIJiiiEEEEELi1ELb1EEC2B8ue170006ENS_18__default_init_tagE, symObjAddr: 0x1C10, symBinAddr: 0x10000534C, symSize: 0x2C }
  - { offsetInCU: 0xDF7E, offset: 0xDF7E, size: 0x8, addend: 0x0, symName: __ZNSt3__19allocatorINS_5tupleIJiiiEEEEC2B8ue170006Ev, symObjAddr: 0x1C3C, symBinAddr: 0x100005378, symSize: 0x2C }
  - { offsetInCU: 0xDFA8, offset: 0xDFA8, size: 0x8, addend: 0x0, symName: __ZNSt3__116__non_trivial_ifILb1ENS_9allocatorINS_5tupleIJiiiEEEEEEC2B8ue170006Ev, symObjAddr: 0x1C68, symBinAddr: 0x1000053A4, symSize: 0x14 }
  - { offsetInCU: 0xDFD2, offset: 0xDFD2, size: 0x8, addend: 0x0, symName: __ZNSt3__16vectorINS_5tupleIJiiiEEENS_9allocatorIS2_EEE9push_backB8ue170006EOS2_, symObjAddr: 0x1C7C, symBinAddr: 0x1000053B8, symSize: 0x6C }
  - { offsetInCU: 0xE009, offset: 0xE009, size: 0x8, addend: 0x0, symName: __ZNSt3__16vectorINS_5tupleIJiiiEEENS_9allocatorIS2_EEE5beginB8ue170006Ev, symObjAddr: 0x1D28, symBinAddr: 0x100005464, symSize: 0x30 }
  - { offsetInCU: 0xE031, offset: 0xE031, size: 0x8, addend: 0x0, symName: __ZNSt3__16vectorINS_5tupleIJiiiEEENS_9allocatorIS2_EEE3endB8ue170006Ev, symObjAddr: 0x1D58, symBinAddr: 0x100005494, symSize: 0x30 }
  - { offsetInCU: 0xE059, offset: 0xE059, size: 0x8, addend: 0x0, symName: __ZNSt3__16vectorINS_5tupleIJiiiEEENS_9allocatorIS2_EEE9__end_capB8ue170006Ev, symObjAddr: 0x1D88, symBinAddr: 0x1000054C4, symSize: 0x28 }
  - { offsetInCU: 0xE07F, offset: 0xE07F, size: 0x8, addend: 0x0, symName: __ZNSt3__16vectorINS_5tupleIJiiiEEENS_9allocatorIS2_EEE22__construct_one_at_endB8ue170006IJS2_EEEvDpOT_, symObjAddr: 0x1DB0, symBinAddr: 0x1000054EC, symSize: 0x90 }
  - { offsetInCU: 0xE0CE, offset: 0xE0CE, size: 0x8, addend: 0x0, symName: __ZNSt3__16vectorINS_5tupleIJiiiEEENS_9allocatorIS2_EEE21__push_back_slow_pathIS2_EEvOT_, symObjAddr: 0x1E40, symBinAddr: 0x10000557C, symSize: 0xD8 }
  - { offsetInCU: 0xE12C, offset: 0xE12C, size: 0x8, addend: 0x0, symName: __ZNSt3__117__compressed_pairIPNS_5tupleIJiiiEEENS_9allocatorIS2_EEE5firstB8ue170006Ev, symObjAddr: 0x1F18, symBinAddr: 0x100005654, symSize: 0x24 }
  - { offsetInCU: 0xE152, offset: 0xE152, size: 0x8, addend: 0x0, symName: __ZNSt3__122__compressed_pair_elemIPNS_5tupleIJiiiEEELi0ELb0EE5__getB8ue170006Ev, symObjAddr: 0x1F3C, symBinAddr: 0x100005678, symSize: 0x14 }
  - { offsetInCU: 0xE191, offset: 0xE191, size: 0x8, addend: 0x0, symName: __ZNSt3__16vectorINS_5tupleIJiiiEEENS_9allocatorIS2_EEE21_ConstructTransactionC1B8ue170006ERS5_m, symObjAddr: 0x1F50, symBinAddr: 0x10000568C, symSize: 0x3C }
  - { offsetInCU: 0xE1D9, offset: 0xE1D9, size: 0x8, addend: 0x0, symName: __ZNSt3__116allocator_traitsINS_9allocatorINS_5tupleIJiiiEEEEEE9constructB8ue170006IS3_JS3_EvEEvRS4_PT_DpOT0_, symObjAddr: 0x1F8C, symBinAddr: 0x1000056C8, symSize: 0x34 }
  - { offsetInCU: 0xE230, offset: 0xE230, size: 0x8, addend: 0x0, symName: __ZNSt3__16vectorINS_5tupleIJiiiEEENS_9allocatorIS2_EEE21_ConstructTransactionD1B8ue170006Ev, symObjAddr: 0x1FC0, symBinAddr: 0x1000056FC, symSize: 0x2C }
  - { offsetInCU: 0xE25A, offset: 0xE25A, size: 0x8, addend: 0x0, symName: __ZNSt3__16vectorINS_5tupleIJiiiEEENS_9allocatorIS2_EEE21_ConstructTransactionC2B8ue170006ERS5_m, symObjAddr: 0x1FEC, symBinAddr: 0x100005728, symSize: 0x4C }
  - { offsetInCU: 0xE2A2, offset: 0xE2A2, size: 0x8, addend: 0x0, symName: __ZNSt3__19allocatorINS_5tupleIJiiiEEEE9constructB8ue170006IS2_JS2_EEEvPT_DpOT0_, symObjAddr: 0x2038, symBinAddr: 0x100005774, symSize: 0x30 }
  - { offsetInCU: 0xE2F8, offset: 0xE2F8, size: 0x8, addend: 0x0, symName: __ZNSt3__16vectorINS_5tupleIJiiiEEENS_9allocatorIS2_EEE21_ConstructTransactionD2B8ue170006Ev, symObjAddr: 0x2068, symBinAddr: 0x1000057A4, symSize: 0x20 }
  - { offsetInCU: 0xE322, offset: 0xE322, size: 0x8, addend: 0x0, symName: __ZNKSt3__16vectorINS_5tupleIJiiiEEENS_9allocatorIS2_EEE11__recommendB8ue170006Em, symObjAddr: 0x2088, symBinAddr: 0x1000057C4, symSize: 0xB4 }
  - { offsetInCU: 0xE377, offset: 0xE377, size: 0x8, addend: 0x0, symName: __ZNSt3__114__split_bufferINS_5tupleIJiiiEEERNS_9allocatorIS2_EEEC1EmmS5_, symObjAddr: 0x213C, symBinAddr: 0x100005878, symSize: 0x44 }
  - { offsetInCU: 0xE3CD, offset: 0xE3CD, size: 0x8, addend: 0x0, symName: __ZNSt3__114__split_bufferINS_5tupleIJiiiEEERNS_9allocatorIS2_EEED1Ev, symObjAddr: 0x2290, symBinAddr: 0x1000059CC, symSize: 0x2C }
  - { offsetInCU: 0xE3F9, offset: 0xE3F9, size: 0x8, addend: 0x0, symName: __ZNKSt3__16vectorINS_5tupleIJiiiEEENS_9allocatorIS2_EEE8max_sizeEv, symObjAddr: 0x22BC, symBinAddr: 0x1000059F8, symSize: 0x60 }
  - { offsetInCU: 0xE421, offset: 0xE421, size: 0x8, addend: 0x0, symName: __ZNKSt3__16vectorINS_5tupleIJiiiEEENS_9allocatorIS2_EEE20__throw_length_errorB8ue170006Ev, symObjAddr: 0x231C, symBinAddr: 0x100005A58, symSize: 0x1C }
  - { offsetInCU: 0xE451, offset: 0xE451, size: 0x8, addend: 0x0, symName: __ZNSt3__116allocator_traitsINS_9allocatorINS_5tupleIJiiiEEEEEE8max_sizeB8ue170006IS4_vEEmRKS4_, symObjAddr: 0x2390, symBinAddr: 0x100005ACC, symSize: 0x24 }
  - { offsetInCU: 0xE47F, offset: 0xE47F, size: 0x8, addend: 0x0, symName: __ZNKSt3__16vectorINS_5tupleIJiiiEEENS_9allocatorIS2_EEE7__allocB8ue170006Ev, symObjAddr: 0x23B4, symBinAddr: 0x100005AF0, symSize: 0x28 }
  - { offsetInCU: 0xE4A5, offset: 0xE4A5, size: 0x8, addend: 0x0, symName: __ZNSt3__114numeric_limitsIlE3maxB8ue170006Ev, symObjAddr: 0x23DC, symBinAddr: 0x100005B18, symSize: 0x14 }
  - { offsetInCU: 0xE4C3, offset: 0xE4C3, size: 0x8, addend: 0x0, symName: __ZNKSt3__16__lessIvvEclB8ue170006ImmEEbRKT_RKT0_, symObjAddr: 0x2444, symBinAddr: 0x100005B80, symSize: 0x34 }
  - { offsetInCU: 0xE517, offset: 0xE517, size: 0x8, addend: 0x0, symName: __ZNKSt3__19allocatorINS_5tupleIJiiiEEEE8max_sizeB8ue170006Ev, symObjAddr: 0x2478, symBinAddr: 0x100005BB4, symSize: 0x18 }
  - { offsetInCU: 0xE53D, offset: 0xE53D, size: 0x8, addend: 0x0, symName: __ZNKSt3__117__compressed_pairIPNS_5tupleIJiiiEEENS_9allocatorIS2_EEE6secondB8ue170006Ev, symObjAddr: 0x2490, symBinAddr: 0x100005BCC, symSize: 0x24 }
  - { offsetInCU: 0xE563, offset: 0xE563, size: 0x8, addend: 0x0, symName: __ZNKSt3__122__compressed_pair_elemINS_9allocatorINS_5tupleIJiiiEEEEELi1ELb1EE5__getB8ue170006Ev, symObjAddr: 0x24B4, symBinAddr: 0x100005BF0, symSize: 0x14 }
  - { offsetInCU: 0xE589, offset: 0xE589, size: 0x8, addend: 0x0, symName: __ZNSt3__123__libcpp_numeric_limitsIlLb1EE3maxB8ue170006Ev, symObjAddr: 0x24C8, symBinAddr: 0x100005C04, symSize: 0x8 }
  - { offsetInCU: 0xE59D, offset: 0xE59D, size: 0x8, addend: 0x0, symName: __ZNSt12length_errorC1B8ue170006EPKc, symObjAddr: 0x2534, symBinAddr: 0x100005C70, symSize: 0x34 }
  - { offsetInCU: 0xE5D5, offset: 0xE5D5, size: 0x8, addend: 0x0, symName: __ZNSt12length_errorC2B8ue170006EPKc, symObjAddr: 0x2568, symBinAddr: 0x100005CA4, symSize: 0x4C }
  - { offsetInCU: 0xE60D, offset: 0xE60D, size: 0x8, addend: 0x0, symName: __ZNSt3__114__split_bufferINS_5tupleIJiiiEEERNS_9allocatorIS2_EEEC2EmmS5_, symObjAddr: 0x2608, symBinAddr: 0x100005D44, symSize: 0xE0 }
  - { offsetInCU: 0xE680, offset: 0xE680, size: 0x8, addend: 0x0, symName: __ZNSt3__117__compressed_pairIPNS_5tupleIJiiiEEERNS_9allocatorIS2_EEEC1B8ue170006IDnS6_EEOT_OT0_, symObjAddr: 0x26E8, symBinAddr: 0x100005E24, symSize: 0x3C }
  - { offsetInCU: 0xE6D8, offset: 0xE6D8, size: 0x8, addend: 0x0, symName: __ZNSt3__114__split_bufferINS_5tupleIJiiiEEERNS_9allocatorIS2_EEE7__allocB8ue170006Ev, symObjAddr: 0x2764, symBinAddr: 0x100005EA0, symSize: 0x28 }
  - { offsetInCU: 0xE6FE, offset: 0xE6FE, size: 0x8, addend: 0x0, symName: __ZNSt3__114__split_bufferINS_5tupleIJiiiEEERNS_9allocatorIS2_EEE9__end_capB8ue170006Ev, symObjAddr: 0x278C, symBinAddr: 0x100005EC8, symSize: 0x28 }
  - { offsetInCU: 0xE724, offset: 0xE724, size: 0x8, addend: 0x0, symName: __ZNSt3__117__compressed_pairIPNS_5tupleIJiiiEEERNS_9allocatorIS2_EEEC2B8ue170006IDnS6_EEOT_OT0_, symObjAddr: 0x27B4, symBinAddr: 0x100005EF0, symSize: 0x48 }
  - { offsetInCU: 0xE77C, offset: 0xE77C, size: 0x8, addend: 0x0, symName: __ZNSt3__122__compressed_pair_elemIRNS_9allocatorINS_5tupleIJiiiEEEEELi1ELb0EEC2B8ue170006IS5_vEEOT_, symObjAddr: 0x27FC, symBinAddr: 0x100005F38, symSize: 0x20 }
  - { offsetInCU: 0xE7BE, offset: 0xE7BE, size: 0x8, addend: 0x0, symName: __ZNSt3__19allocatorINS_5tupleIJiiiEEEE8allocateB8ue170006Em, symObjAddr: 0x281C, symBinAddr: 0x100005F58, symSize: 0x5C }
  - { offsetInCU: 0xE7F2, offset: 0xE7F2, size: 0x8, addend: 0x0, symName: __ZNSt3__117__compressed_pairIPNS_5tupleIJiiiEEERNS_9allocatorIS2_EEE6secondB8ue170006Ev, symObjAddr: 0x28F8, symBinAddr: 0x100006034, symSize: 0x28 }
  - { offsetInCU: 0xE818, offset: 0xE818, size: 0x8, addend: 0x0, symName: __ZNSt3__122__compressed_pair_elemIRNS_9allocatorINS_5tupleIJiiiEEEEELi1ELb0EE5__getB8ue170006Ev, symObjAddr: 0x2920, symBinAddr: 0x10000605C, symSize: 0x18 }
  - { offsetInCU: 0xE83E, offset: 0xE83E, size: 0x8, addend: 0x0, symName: __ZNSt3__117__compressed_pairIPNS_5tupleIJiiiEEERNS_9allocatorIS2_EEE5firstB8ue170006Ev, symObjAddr: 0x2938, symBinAddr: 0x100006074, symSize: 0x24 }
  - { offsetInCU: 0xE864, offset: 0xE864, size: 0x8, addend: 0x0, symName: __ZNSt3__116reverse_iteratorIPNS_5tupleIJiiiEEEEC1B8ue170006ES3_, symObjAddr: 0x2A88, symBinAddr: 0x1000061C4, symSize: 0x34 }
  - { offsetInCU: 0xE89C, offset: 0xE89C, size: 0x8, addend: 0x0, symName: __ZNKSt3__116reverse_iteratorIPNS_5tupleIJiiiEEEE4baseB8ue170006Ev, symObjAddr: 0x2ABC, symBinAddr: 0x1000061F8, symSize: 0x18 }
  - { offsetInCU: 0xE8C2, offset: 0xE8C2, size: 0x8, addend: 0x0, symName: __ZNKSt3__16vectorINS_5tupleIJiiiEEENS_9allocatorIS2_EEE14__annotate_newB8ue170006Em, symObjAddr: 0x2B10, symBinAddr: 0x10000624C, symSize: 0xC8 }
  - { offsetInCU: 0xE8F7, offset: 0xE8F7, size: 0x8, addend: 0x0, symName: __ZNSt3__129_AllocatorDestroyRangeReverseINS_9allocatorINS_5tupleIJiiiEEEEENS_16reverse_iteratorIPS3_EEEC1B8ue170006ERS4_RS7_SA_, symObjAddr: 0x2C24, symBinAddr: 0x100006360, symSize: 0x44 }
  - { offsetInCU: 0xE94E, offset: 0xE94E, size: 0x8, addend: 0x0, symName: __ZNKSt3__116reverse_iteratorIPNS_5tupleIJiiiEEEEdeB8ue170006Ev, symObjAddr: 0x2CD4, symBinAddr: 0x100006410, symSize: 0x28 }
  - { offsetInCU: 0xE982, offset: 0xE982, size: 0x8, addend: 0x0, symName: __ZNSt3__116reverse_iteratorIPNS_5tupleIJiiiEEEEppB8ue170006Ev, symObjAddr: 0x2CFC, symBinAddr: 0x100006438, symSize: 0x20 }
  - { offsetInCU: 0xE9A8, offset: 0xE9A8, size: 0x8, addend: 0x0, symName: __ZNSt3__128__exception_guard_exceptionsINS_29_AllocatorDestroyRangeReverseINS_9allocatorINS_5tupleIJiiiEEEEENS_16reverse_iteratorIPS4_EEEEE10__completeB8ue170006Ev, symObjAddr: 0x2D1C, symBinAddr: 0x100006458, symSize: 0x1C }
  - { offsetInCU: 0xE9CE, offset: 0xE9CE, size: 0x8, addend: 0x0, symName: __ZNSt3__128__exception_guard_exceptionsINS_29_AllocatorDestroyRangeReverseINS_9allocatorINS_5tupleIJiiiEEEEENS_16reverse_iteratorIPS4_EEEEED1B8ue170006Ev, symObjAddr: 0x2D38, symBinAddr: 0x100006474, symSize: 0x2C }
  - { offsetInCU: 0xE9F8, offset: 0xE9F8, size: 0x8, addend: 0x0, symName: __ZNSt3__128__exception_guard_exceptionsINS_29_AllocatorDestroyRangeReverseINS_9allocatorINS_5tupleIJiiiEEEEENS_16reverse_iteratorIPS4_EEEEEC1B8ue170006ES9_, symObjAddr: 0x2D64, symBinAddr: 0x1000064A0, symSize: 0x34 }
  - { offsetInCU: 0xEA31, offset: 0xEA31, size: 0x8, addend: 0x0, symName: __ZNSt3__128__exception_guard_exceptionsINS_29_AllocatorDestroyRangeReverseINS_9allocatorINS_5tupleIJiiiEEEEENS_16reverse_iteratorIPS4_EEEEEC2B8ue170006ES9_, symObjAddr: 0x2D98, symBinAddr: 0x1000064D4, symSize: 0x30 }
  - { offsetInCU: 0xEA6A, offset: 0xEA6A, size: 0x8, addend: 0x0, symName: __ZNSt3__129_AllocatorDestroyRangeReverseINS_9allocatorINS_5tupleIJiiiEEEEENS_16reverse_iteratorIPS3_EEEC2B8ue170006ERS4_RS7_SA_, symObjAddr: 0x2DC8, symBinAddr: 0x100006504, symSize: 0x38 }
  - { offsetInCU: 0xEAC6, offset: 0xEAC6, size: 0x8, addend: 0x0, symName: __ZNSt3__119__to_address_helperINS_16reverse_iteratorIPNS_5tupleIJiiiEEEEEvE6__callB8ue170006ERKS5_, symObjAddr: 0x2E00, symBinAddr: 0x10000653C, symSize: 0x38 }
  - { offsetInCU: 0xEAE9, offset: 0xEAE9, size: 0x8, addend: 0x0, symName: __ZNKSt3__116reverse_iteratorIPNS_5tupleIJiiiEEEEptB8ue170006Ev, symObjAddr: 0x2E38, symBinAddr: 0x100006574, symSize: 0x24 }
  - { offsetInCU: 0xEB0F, offset: 0xEB0F, size: 0x8, addend: 0x0, symName: __ZNSt3__128__exception_guard_exceptionsINS_29_AllocatorDestroyRangeReverseINS_9allocatorINS_5tupleIJiiiEEEEENS_16reverse_iteratorIPS4_EEEEED2B8ue170006Ev, symObjAddr: 0x2E5C, symBinAddr: 0x100006598, symSize: 0x50 }
  - { offsetInCU: 0xEB39, offset: 0xEB39, size: 0x8, addend: 0x0, symName: __ZNKSt3__129_AllocatorDestroyRangeReverseINS_9allocatorINS_5tupleIJiiiEEEEENS_16reverse_iteratorIPS3_EEEclB8ue170006Ev, symObjAddr: 0x2EAC, symBinAddr: 0x1000065E8, symSize: 0xB4 }
  - { offsetInCU: 0xEB60, offset: 0xEB60, size: 0x8, addend: 0x0, symName: __ZNSt3__116reverse_iteratorINS0_IPNS_5tupleIJiiiEEEEEEC1B8ue170006ES4_, symObjAddr: 0x2FD0, symBinAddr: 0x10000670C, symSize: 0x3C }
  - { offsetInCU: 0xEB98, offset: 0xEB98, size: 0x8, addend: 0x0, symName: __ZNSt3__116reverse_iteratorINS0_IPNS_5tupleIJiiiEEEEEEppB8ue170006Ev, symObjAddr: 0x3090, symBinAddr: 0x1000067CC, symSize: 0x30 }
  - { offsetInCU: 0xEBBE, offset: 0xEBBE, size: 0x8, addend: 0x0, symName: __ZNKSt3__116reverse_iteratorINS0_IPNS_5tupleIJiiiEEEEEE4baseB8ue170006Ev, symObjAddr: 0x30C0, symBinAddr: 0x1000067FC, symSize: 0x24 }
  - { offsetInCU: 0xEBE9, offset: 0xEBE9, size: 0x8, addend: 0x0, symName: __ZNSt3__119__to_address_helperINS_16reverse_iteratorINS1_IPNS_5tupleIJiiiEEEEEEEvE6__callB8ue170006ERKS6_, symObjAddr: 0x30E4, symBinAddr: 0x100006820, symSize: 0x38 }
  - { offsetInCU: 0xEC0C, offset: 0xEC0C, size: 0x8, addend: 0x0, symName: __ZNKSt3__116reverse_iteratorINS0_IPNS_5tupleIJiiiEEEEEEptB8ue170006Ev, symObjAddr: 0x311C, symBinAddr: 0x100006858, symSize: 0x24 }
  - { offsetInCU: 0xEC32, offset: 0xEC32, size: 0x8, addend: 0x0, symName: __ZNKSt3__116reverse_iteratorINS0_IPNS_5tupleIJiiiEEEEEEdeB8ue170006Ev, symObjAddr: 0x3140, symBinAddr: 0x10000687C, symSize: 0x34 }
  - { offsetInCU: 0xEC66, offset: 0xEC66, size: 0x8, addend: 0x0, symName: __ZNSt3__116reverse_iteratorIPNS_5tupleIJiiiEEEEmmB8ue170006Ev, symObjAddr: 0x3174, symBinAddr: 0x1000068B0, symSize: 0x20 }
  - { offsetInCU: 0xEC8C, offset: 0xEC8C, size: 0x8, addend: 0x0, symName: __ZNSt3__116reverse_iteratorINS0_IPNS_5tupleIJiiiEEEEEEC2B8ue170006ES4_, symObjAddr: 0x3194, symBinAddr: 0x1000068D0, symSize: 0x2C }
  - { offsetInCU: 0xECC4, offset: 0xECC4, size: 0x8, addend: 0x0, symName: __ZNSt3__116reverse_iteratorIPNS_5tupleIJiiiEEEEC2B8ue170006ES3_, symObjAddr: 0x31C0, symBinAddr: 0x1000068FC, symSize: 0x28 }
  - { offsetInCU: 0xECFC, offset: 0xECFC, size: 0x8, addend: 0x0, symName: __ZNSt3__114__split_bufferINS_5tupleIJiiiEEERNS_9allocatorIS2_EEED2Ev, symObjAddr: 0x31E8, symBinAddr: 0x100006924, symSize: 0x8C }
  - { offsetInCU: 0xED28, offset: 0xED28, size: 0x8, addend: 0x0, symName: __ZNSt3__114__split_bufferINS_5tupleIJiiiEEERNS_9allocatorIS2_EEE5clearB8ue170006Ev, symObjAddr: 0x3274, symBinAddr: 0x1000069B0, symSize: 0x28 }
  - { offsetInCU: 0xED4E, offset: 0xED4E, size: 0x8, addend: 0x0, symName: __ZNKSt3__114__split_bufferINS_5tupleIJiiiEEERNS_9allocatorIS2_EEE8capacityB8ue170006Ev, symObjAddr: 0x329C, symBinAddr: 0x1000069D8, symSize: 0x40 }
  - { offsetInCU: 0xED74, offset: 0xED74, size: 0x8, addend: 0x0, symName: __ZNSt3__114__split_bufferINS_5tupleIJiiiEEERNS_9allocatorIS2_EEE17__destruct_at_endB8ue170006EPS2_, symObjAddr: 0x32DC, symBinAddr: 0x100006A18, symSize: 0x2C }
  - { offsetInCU: 0xEDA8, offset: 0xEDA8, size: 0x8, addend: 0x0, symName: __ZNSt3__114__split_bufferINS_5tupleIJiiiEEERNS_9allocatorIS2_EEE17__destruct_at_endB8ue170006EPS2_NS_17integral_constantIbLb0EEE, symObjAddr: 0x3308, symBinAddr: 0x100006A44, symSize: 0x80 }
  - { offsetInCU: 0xEDE9, offset: 0xEDE9, size: 0x8, addend: 0x0, symName: __ZNKSt3__114__split_bufferINS_5tupleIJiiiEEERNS_9allocatorIS2_EEE9__end_capB8ue170006Ev, symObjAddr: 0x3388, symBinAddr: 0x100006AC4, symSize: 0x28 }
  - { offsetInCU: 0xEE0F, offset: 0xEE0F, size: 0x8, addend: 0x0, symName: __ZNKSt3__117__compressed_pairIPNS_5tupleIJiiiEEERNS_9allocatorIS2_EEE5firstB8ue170006Ev, symObjAddr: 0x33B0, symBinAddr: 0x100006AEC, symSize: 0x24 }
  - { offsetInCU: 0xEE35, offset: 0xEE35, size: 0x8, addend: 0x0, symName: __ZNKSt3__111__wrap_iterIPNS_5tupleIJiiiEEEE4baseB8ue170006Ev, symObjAddr: 0x35DC, symBinAddr: 0x100006D18, symSize: 0x18 }
  - { offsetInCU: 0xEE5B, offset: 0xEE5B, size: 0x8, addend: 0x0, symName: __ZNKSt3__111__wrap_iterIPNS_5tupleIJiiiEEEEplB8ue170006El, symObjAddr: 0x35F4, symBinAddr: 0x100006D30, symSize: 0x3C }
  - { offsetInCU: 0xEE9D, offset: 0xEE9D, size: 0x8, addend: 0x0, symName: __ZNKSt3__14lessINS_5tupleIJiiiEEEEclB8ue170006ERKS2_S5_, symObjAddr: 0x3630, symBinAddr: 0x100006D6C, symSize: 0x34 }
  - { offsetInCU: 0xEEE1, offset: 0xEEE1, size: 0x8, addend: 0x0, symName: __ZNKSt3__111__wrap_iterIPNS_5tupleIJiiiEEEEdeB8ue170006Ev, symObjAddr: 0x3664, symBinAddr: 0x100006DA0, symSize: 0x18 }
  - { offsetInCU: 0xEF07, offset: 0xEF07, size: 0x8, addend: 0x0, symName: __ZNSt3__111__wrap_iterIPNS_5tupleIJiiiEEEEmmB8ue170006Ev, symObjAddr: 0x367C, symBinAddr: 0x100006DB8, symSize: 0x20 }
  - { offsetInCU: 0xEF2D, offset: 0xEF2D, size: 0x8, addend: 0x0, symName: __ZNSt3__18_IterOpsINS_17_ClassicAlgPolicyEE11__iter_moveB8ue170006IRNS_11__wrap_iterIPNS_5tupleIJiiiEEEEEEENS_9enable_ifIXsr12is_referenceIDTdeclsr3stdE7declvalIRT_EEEEE5valueEDTclsr3stdE4movedeclsr3stdE7declvalISC_EEEEE4typeEOSB_, symObjAddr: 0x369C, symBinAddr: 0x100006DD8, symSize: 0x28 }
  - { offsetInCU: 0xEF59, offset: 0xEF59, size: 0x8, addend: 0x0, symName: __ZNSt3__15tupleIJiiiEEaSB8ue170006EOS1_, symObjAddr: 0x36C4, symBinAddr: 0x100006E00, symSize: 0x3C }
  - { offsetInCU: 0xEF8E, offset: 0xEF8E, size: 0x8, addend: 0x0, symName: __ZNSt3__111__wrap_iterIPNS_5tupleIJiiiEEEEpLB8ue170006El, symObjAddr: 0x3700, symBinAddr: 0x100006E3C, symSize: 0x30 }
  - { offsetInCU: 0xEFC7, offset: 0xEFC7, size: 0x8, addend: 0x0, symName: __ZNSt3__112__tuple_lessILm3EEclB8ue170006INS_5tupleIJiiiEEES4_EEbRKT_RKT0_, symObjAddr: 0x3764, symBinAddr: 0x100006EA0, symSize: 0xD8 }
  - { offsetInCU: 0xF031, offset: 0xF031, size: 0x8, addend: 0x0, symName: __ZNSt3__112__tuple_lessILm2EEclB8ue170006INS_5tupleIJiiiEEES4_EEbRKT_RKT0_, symObjAddr: 0x3860, symBinAddr: 0x100006F9C, symSize: 0xDC }
  - { offsetInCU: 0xF096, offset: 0xF096, size: 0x8, addend: 0x0, symName: __ZNKSt3__112__tuple_leafILm0EiLb0EE3getB8ue170006Ev, symObjAddr: 0x393C, symBinAddr: 0x100007078, symSize: 0x14 }
  - { offsetInCU: 0xF0C1, offset: 0xF0C1, size: 0x8, addend: 0x0, symName: __ZNSt3__112__tuple_lessILm1EEclB8ue170006INS_5tupleIJiiiEEES4_EEbRKT_RKT0_, symObjAddr: 0x3950, symBinAddr: 0x10000708C, symSize: 0xDC }
  - { offsetInCU: 0xF12B, offset: 0xF12B, size: 0x8, addend: 0x0, symName: __ZNSt3__112__tuple_lessILm0EEclB8ue170006INS_5tupleIJiiiEEES4_EEbRKT_RKT0_, symObjAddr: 0x3A2C, symBinAddr: 0x100007168, symSize: 0x20 }
  - { offsetInCU: 0xF179, offset: 0xF179, size: 0x8, addend: 0x0, symName: __ZNSt3__18_IterOpsINS_17_ClassicAlgPolicyEE25__validate_iter_referenceB8ue170006IRNS_11__wrap_iterIPNS_5tupleIJiiiEEEEEEEvv, symObjAddr: 0x3A4C, symBinAddr: 0x100007188, symSize: 0x4 }
  - { offsetInCU: 0xF197, offset: 0xF197, size: 0x8, addend: 0x0, symName: __ZNSt3__112__tuple_leafILm0EiLb0EE3getB8ue170006Ev, symObjAddr: 0x3B8C, symBinAddr: 0x1000072C8, symSize: 0x14 }
  - { offsetInCU: 0xF1BD, offset: 0xF1BD, size: 0x8, addend: 0x0, symName: __ZNSt3__16vectorINS_5tupleIJiiiEEENS_9allocatorIS2_EEE11__make_iterB8ue170006EPS2_, symObjAddr: 0x3BA0, symBinAddr: 0x1000072DC, symSize: 0x30 }
  - { offsetInCU: 0xF1F2, offset: 0xF1F2, size: 0x8, addend: 0x0, symName: __ZNSt3__111__wrap_iterIPNS_5tupleIJiiiEEEEC1B8ue170006ES3_, symObjAddr: 0x3BD0, symBinAddr: 0x10000730C, symSize: 0x34 }
  - { offsetInCU: 0xF22A, offset: 0xF22A, size: 0x8, addend: 0x0, symName: __ZNSt3__111__wrap_iterIPNS_5tupleIJiiiEEEEC2B8ue170006ES3_, symObjAddr: 0x3C04, symBinAddr: 0x100007340, symSize: 0x20 }
  - { offsetInCU: 0xF262, offset: 0xF262, size: 0x8, addend: 0x0, symName: __ZNKSt3__16vectorINS_5tupleIJiiiEEENS_9allocatorIS2_EEE5emptyB8ue170006Ev, symObjAddr: 0x3C24, symBinAddr: 0x100007360, symSize: 0x28 }
  - { offsetInCU: 0xF288, offset: 0xF288, size: 0x8, addend: 0x0, symName: __ZNKSt3__16vectorINS_5tupleIJiiiEEENS_9allocatorIS2_EEE5frontB8ue170006Ev, symObjAddr: 0x3C4C, symBinAddr: 0x100007388, symSize: 0x18 }
  - { offsetInCU: 0xF2AE, offset: 0xF2AE, size: 0x8, addend: 0x0, symName: __ZNSt3__16vectorINS_5tupleIJiiiEEENS_9allocatorIS2_EEE8pop_backEv, symObjAddr: 0x3CBC, symBinAddr: 0x1000073F8, symSize: 0x2C }
  - { offsetInCU: 0xF2D6, offset: 0xF2D6, size: 0x8, addend: 0x0, symName: __ZNSt3__111__wrap_iterIPNS_5tupleIJiiiEEEEppB8ue170006Ev, symObjAddr: 0x3FA8, symBinAddr: 0x1000076E4, symSize: 0x20 }
  - { offsetInCU: 0xF2FC, offset: 0xF2FC, size: 0x8, addend: 0x0, symName: __ZNSt3__16vectorINS_5tupleIJiiiEEENS_9allocatorIS2_EEE17__destruct_at_endB8ue170006EPS2_, symObjAddr: 0x3FC8, symBinAddr: 0x100007704, symSize: 0x4C }
  - { offsetInCU: 0xF340, offset: 0xF340, size: 0x8, addend: 0x0, symName: __ZNKSt3__16vectorINS_5tupleIJiiiEEENS_9allocatorIS2_EEE17__annotate_shrinkB8ue170006Em, symObjAddr: 0x4014, symBinAddr: 0x100007750, symSize: 0xD0 }
  - { offsetInCU: 0xF375, offset: 0xF375, size: 0x8, addend: 0x0, symName: __ZNKSt3__19basic_iosIcNS_11char_traitsIcEEE5widenB8ue170006Ec, symObjAddr: 0x40E4, symBinAddr: 0x100007820, symSize: 0x84 }
  - { offsetInCU: 0xF3E3, offset: 0xF3E3, size: 0x8, addend: 0x0, symName: __ZNKSt3__15ctypeIcE5widenB8ue170006Ec, symObjAddr: 0x4194, symBinAddr: 0x1000078D0, symSize: 0x38 }
...
